******************************************************************************
                  TI ARM Linker PC v16.9.3                     
******************************************************************************
>> Linked Fri Sep 08 03:56:18 2017

OUTPUT FILE NAME:   <TM4C_RTOS_CMSIS_DSP.out>
ENTRY POINT SYMBOL: "_c_int00"  address: 000101f9


MEMORY CONFIGURATION

         name            origin    length      used     unused   attr    fill
----------------------  --------  ---------  --------  --------  ----  --------
  FLASH                 00000000   00100000  00017d32  000e82ce  R  X
  SRAM                  20000000   00040000  00019e38  000261c8  RW X


SEGMENT ALLOCATION MAP

run origin  load origin   length   init length attrs members
----------  ----------- ---------- ----------- ----- -------
00000000    00000000    00017d38   00017d38    r-x
  00000000    00000000    0000003c   0000003c    r-- .resetVecs
  00000040    00000040    00014832   00014832    r-x .text
  00014874    00014874    00002fec   00002fec    r-- .const
  00017860    00017860    000004d8   000004d8    r-- .cinit
20000000    20000000    00000360   00000000    rw-
  20000000    20000000    00000360   00000000    rw- .vecs
20000400    20000400    00019ad8   00000000    rw-
  20000400    20000400    000186d8   00000000    rw- .bss
  20018ad8    20018ad8    00000c00   00000000    rw- .data
  200196d8    200196d8    00000800   00000000    rw- .stack


SECTION ALLOCATION MAP

 output                                  attributes/
section   page    origin      length       input sections
--------  ----  ----------  ----------   ----------------
.text      0    00000040    00014832     
                  00000040    00000c68     stk.aem4f : tcpin.oem4f (.text:TcpInput)
                  00000ca8    000008b8               : tcpout.oem4f (.text:TcpOutput)
                  00001560    00000430     sysbios.aem4f : BIOS.obj (.text:ti_sysbios_family_arm_m3_Hwi_excDumpRegs__I)
                  00001990    00000408     stk.aem4f : ipout.oem4f (.text:IPTxPacket)
                  00001d98    00000384               : ipin.oem4f (.text:IPRxPacket)
                  0000211c    0000034c     ti.targets.arm.rtsarm.aem4f : System.oem4f (.text:xdc_runtime_System_doPrint__I)
                  00002468    00000324     rtsv7M4_T_le_v4SPD16_eabi.lib : trgdrv.obj (.text)
                  0000278c    00000004     driverlib.lib : adc.obj (.text:ADCIntClearEx)
                  00002790    000002ec     sysbios.aem4f : BIOS.obj (.text:ti_sysbios_knl_Semaphore_pend__E)
                  00002a7c    00000004     stk.aem4f : bind.oem4f (.text:BindGetIF)
                  00002a80    000002c0     sysbios.aem4f : BIOS.obj (.text:ti_sysbios_knl_Task_Instance_finalize__E)
                  00002d40    00000284     stk.aem4f : sock.oem4f (.text:SockSet)
                  00002fc4    00000004               : bind.oem4f (.text:BindGetNext)
                  00002fc8    00000258     sysbios.aem4f : BIOS.obj (.text:ti_sysbios_heaps_HeapMem_free__E)
                  00003220    0000024c     stk.aem4f : ipfrag.oem4f (.text:IPReasm)
                  0000346c    00000004     os.aem4f : ossys.oem4f (.text:NDK_vsprintf)
                  00003470    00000248     sysbios.aem4f : BIOS.obj (.text:ti_sysbios_heaps_HeapMem_alloc__E)
                  000036b8    0000023c     stk.aem4f : icmpin.oem4f (.text:ICMPInput)
                  000038f4    00000238               : udp.oem4f (.text:UdpInput)
                  00003b2c    00000204     driverlib.lib : sysctl.obj (.text:SysCtlClockFreqSet)
                  00003d30    00000204     Boot.aem4f : Boot_sysctl.oem4f (.text:ti_catalog_arm_cortexm4_tiva_ce_Boot_sysCtlClockFreqSetI__I)
                  00003f34    00000004     stk.aem4f : node.oem4f (.text:NodeSetRt)
                  00003f38    00000200     sysbios.aem4f : BIOS.obj (.text:ti_sysbios_knl_Task_sleep__E)
                  00004138    000001fc                   : BIOS.obj (.text:ti_sysbios_family_arm_m3_Hwi_excHandlerMax__I)
                  00004334    000001f4     stk.aem4f : sock.oem4f (.text:SockRecv)
                  00004528    000001f4     sysbios.aem4f : BIOS.obj (.text:ti_sysbios_knl_Task_Instance_init__E)
                  0000471c    000001e8     eth_network.obj (.text:tcpHandler)
                  00004904    00000004     stk.aem4f : rawethsock_prot.oem4f (.text:RawEthSockPrAttach)
                  00004908    000001bc     sysbios.aem4f : BIOS.obj (.text:ti_sysbios_family_arm_lm4_Timer_start__E)
                  00004ac4    000001b8     drivers_tivaware.aem4f : EMACSnow.oem4f (.text:EMACSnow_NIMUInit)
                  00004c7c    000001b0     stk.aem4f : lliout.oem4f (.text:LLITxIpPacket)
                  00004e2c    000001ac               : lliin.oem4f (.text:LLIRxPacket)
                  00004fd8    0000019c     os.aem4f : mem.oem4f (.text:mmAlloc)
                  00005174    00000198     stk.aem4f : igmp.oem4f (.text:IGMPInput)
                  0000530c    00000190               : sock.oem4f (.text:SockNew)
                  0000549c    00000004               : rawethsock_prot.oem4f (.text:RawEthSockPrDetach)
                  000054a0    00000188     sysbios.aem4f : BIOS.obj (.text:ti_sysbios_knl_Task_setPri__E)
                  00005628    0000017c                   : BIOS.obj (.text:ti_sysbios_family_arm_lm4_TimestampProvider_get64__E)
                  000057a4    00000174     netctrl_min_ipv4.aem4f : netctrl.oem4f (.text:NC_NetStart)
                  00005918    00000174     sysbios.aem4f : BIOS.obj (.text:ti_sysbios_family_arm_m3_Hwi_excBusFault__I)
                  00005a8c    00000170     stk.aem4f : rtc.oem4f (.text:RTCReport)
                  00005bfc    0000016a               : sb.oem4f (.text:SBRead)
                  00005d66    00000002     hal_userled_stub.aem4f : llled.oem4f (.text:LED_TOGGLE)
                  00005d68    00000164     sysbios.aem4f : BIOS.obj (.text:ti_sysbios_family_arm_m3_Hwi_excUsageFault__I)
                  00005ecc    00000160     stk.aem4f : sock.oem4f (.text:SockConnect)
                  0000602c    00000158     nettool_ipv4.aem4f : dhcpmain.oem4f (.text:DHCPOpen)
                  00006184    00000150     drivers_tivaware.aem4f : GPIOTiva.oem4f (.text:GPIO_setConfig)
                  000062d4    00000004     os.aem4f : semaphore.oem4f (.text:SemPend)
                  000062d8    00000148     sysbios.aem4f : BIOS.obj (.text:ti_sysbios_family_arm_m3_Hwi_excMemFault__I)
                  00006420    00000144     stk.aem4f : bind.oem4f (.text:BindNew)
                  00006564    00000140               : tcp.oem4f (.text:TcpTimeoutCheck)
                  000066a4    00000004     os.aem4f : semaphore.oem4f (.text:SemPost)
                  000066a8    00000140     sysbios.aem4f : BIOS.obj (.text:ti_sysbios_knl_Semaphore_post__E)
                  000067e8    0000013c     nettool_ipv4.aem4f : config.oem4f (.text:CfgAddEntry)
                  00006924    0000013c     stk.aem4f : sockint.oem4f (.text:SockNotify)
                  00006a60    0000013c               : sock.oem4f (.text:SockSend)
                  00006b9c    00000004     os.aem4f : semaphore.oem4f (.text:SemReset)
                  00006ba0    0000013c     sysbios.aem4f : BIOS.obj (.text:ti_sysbios_heaps_HeapMem_Instance_init__E)
                  00006cdc    00000004     os.aem4f : task.oem4f (.text:TaskSelf)
                  00006ce0    0000013c     sysbios.aem4f : BIOS.obj (.text:ti_sysbios_knl_Clock_workFunc__E)
                  00006e1c    00000004     os.aem4f : task.oem4f (.text:TaskSetPri)
                  00006e20    00000138     sysbios.aem4f : BIOS.obj (.text:ti_sysbios_family_arm_m3_Hwi_dispatchC__I)
                  00006f58    00000138     RTOS_config_pem4f.oem4f (.text:ti_uia_loggers_LoggerStopMode_writeMemoryRange__E)
                  00007090    00000134     stk.aem4f : icmp.oem4f (.text:ICMPGenPacket)
                  000071c4    00000130     driverlib.lib : gpio.obj (.text:GPIOPadConfigSet)
                  000072f4    0000012c     EK_TM4C1294XL.obj (.text:EK_TM4C1294XL_initEMAC)
                  00007420    00000124     stk.aem4f : sockpcb.oem4f (.text:SockPcbResolve)
                  00007544    00000124               : udp.oem4f (.text:UdpOutput)
                  00007668    00000124     RTOS_config_pem4f.oem4f (.text:ti_ndk_config_Global_stackThread)
                  0000778c    00000004     driverlib.lib : timer.obj (.text:TimerADCEventSet)
                  00007790    0000011c     sysbios.aem4f : BIOS.obj (.text:ti_sysbios_knl_Clock_Instance_init__E)
                  000078ac    00000004     hal_ser_stub.aem4f : llserstb.oem4f (.text:_llSerialInit)
                  000078b0    0000011c     sysbios.aem4f : BIOS.obj (.text:ti_sysbios_knl_Swi_run__I)
                  000079cc    00000118     stk.aem4f : tcpout.oem4f (.text:TcpGenPacket)
                  00007ae4    00000118     ti.targets.arm.rtsarm.aem4f : Error.oem4f (.text:xdc_runtime_Error_policyDefault__E)
                  00007bfc    00000114     stk.aem4f : nimu.oem4f (.text:NIMUIoctl)
                  00007d10    00000114     RTOS_config_pem4f.oem4f (.text:ti_uia_loggers_LoggerStopMode_write8__E)
                  00007e24    00000110     stk.aem4f : node.oem4f (.text:NodeTreeFree)
                  00007f34    00000110               : raw.oem4f (.text:RawInput)
                  00008044    00000004               : listlib.oem4f (.text:list_get_head)
                  00008048    00000110     sysbios.aem4f : BIOS.obj (.text:ti_sysbios_knl_Task_schedule__I)
                  00008158    0000010c     stk.aem4f : rtable.oem4f (.text:RtFind)
                  00008264    0000010a               : route.oem4f (.text:RtCreate)
                  0000836e    00000002               : nat.oem4f (.text:NatMsg)
                  00008370    00000108     drivers_tivaware.aem4f : EMACSnow.oem4f (.text:EMACSnow_emacStart)
                  00008478    00000108     sysbios.aem4f : BIOS.obj (.text:ti_sysbios_knl_Task_exit__E)
                  00008580    00000104     os.aem4f : task.oem4f (.text:llEnter)
                  00008684    00000104     main.obj (.text:rmsCalc_Task)
                  00008788    00000102     nettool_ipv4.aem4f : dhcppkt.oem4f (.text:dhcpPacketProcess)
                  0000888a    00000102                        : inetaddr.oem4f (.text:inet_aton)
                  0000898c    00000100     stk.aem4f : igmp.oem4f (.text:IGMPSendReply)
                  00008a8c    00000100     adc_sample.obj (.text:adcPinConfig)
                  00008b8c    00000100     ti.targets.arm.rtsarm.aem4f : Core-mem.oem4f (.text:xdc_runtime_Core_createObject__I)
                  00008c8c    000000fc     netctrl_min_ipv4.aem4f : netctrl.oem4f (.text:NetScheduler)
                  00008d88    000000fc     sysbios.aem4f : BIOS.obj (.text:ti_sysbios_knl_Task_postInit__I)
                  00008e84    00000004     stk.aem4f : listlib.oem4f (.text:list_get_next)
                  00008e88    000000fc     sysbios.aem4f : BIOS.obj (.text:ti_sysbios_knl_Task_startCore__E)
                  00008f84    000000fc     RTOS_config_pem4f.oem4f (.text:ti_uia_loggers_LoggerStopMode_write4__E)
                  00009080    000000f8     adc_sample.obj (.text:ADC_init)
                  00009178    000000f8     stk.aem4f : pipe.oem4f (.text:PipeRecv)
                  00009270    000000f8     sysbios.aem4f : BIOS.obj (.text:ti_sysbios_utils_Load_updateThreadContexts__E)
                  00009368    000000f8     ti.targets.arm.rtsarm.aem4f : Startup.oem4f (.text:xdc_runtime_Startup_startMods__I)
                  00009460    000000f8     RTOS_config_pem4f.oem4f (.text:xdc_runtime_System_printfExtend__I)
                  00009558    000000f4     os.aem4f : task.oem4f (.text:TaskGetEnv)
                  0000964c    000000f4     sysbios.aem4f : m3_Hwi_asm.obj (.text:ti_sysbios_family_arm_m3_Hwi_dispatch__I)
                  00009740    000000f0     stk.aem4f : lliout.oem4f (.text:LLIGenArpPacket)
                  00009830    000000f0               : sock.oem4f (.text:SockClose)
                  00009920    000000f0     RTOS_config_pem4f.oem4f (.text:ti_uia_loggers_LoggerStopMode_write2__E)
                  00009a10    000000ec     RTOS_config_pem4f.oem4f (.text:ti_uia_loggers_LoggerStopMode_write1__E)
                  00009afc    000000e8     adc_sample.obj (.text:DMA_init)
                  00009be4    000000e8     os.aem4f : task.oem4f (.text:TaskSetEnv)
                  00009ccc    000000e0     stk.aem4f : tcptime.oem4f (.text:TcpTimeoutRexmt)
                  00009dac    000000dc               : sb.oem4f (.text:SBWrite)
                  00009e88    000000dc     nettool_ipv4.aem4f : dhcpsock.oem4f (.text:dhcpSocketOpen)
                  00009f64    000000dc                        : dhcpsm.oem4f (.text:dhcpState)
                  0000a040    000000dc     RTOS_config_pem4f.oem4f (.text:ti_uia_loggers_LoggerStopMode_write0__E)
                  0000a11c    000000d8     stk.aem4f : node.oem4f (.text:NodeAdd)
                  0000a1f4    000000d8               : tcpprot.oem4f (.text:TcpPrSetOption)
                  0000a2cc    00000004     RTOS_config_pem4f.oem4f (.text:ti_ndk_config_Global_NetworkOpen)
                  0000a2d0    000000d8     sysbios.aem4f : BIOS.obj (.text:ti_sysbios_family_arm_lm4_TimestampProvider_get32__E)
                  0000a3a8    000000d4     drivers_tivaware.aem4f : EMACSnow.oem4f (.text:EMACSnow_handleRx)
                  0000a47c    000000d4     stk.aem4f : sockpcb.oem4f (.text:SockPcbBind)
                  0000a550    000000d4     sysbios.aem4f : BIOS.obj (.text:ti_sysbios_knl_Swi_Instance_init__E)
                  0000a624    000000d1     stk.aem4f : nimu.oem4f (.text:NIMUReceivePacket)
                  0000a6f5    00000001     --HOLE-- [fill = 0]
                  0000a6f6    00000002     os.aem4f : task.oem4f (.text:_TaskInit)
                  0000a6f8    000000cc     stk.aem4f : icmp.oem4f (.text:ICMPSendRtAdv)
                  0000a7c4    000000cc     nettool_ipv4.aem4f : dhcpbild.oem4f (.text:dhcpBuildHeader)
                  0000a890    000000cc                        : dhcpsm.oem4f (.text:dhcpIPAdd)
                  0000a95c    000000cc                        : dhcppkt.oem4f (.text:dhcpVerifyMessage)
                  0000aa28    000000cc     ti.targets.arm.rtsarm.aem4f : Core-smem.oem4f (.text:xdc_runtime_Core_constructObject__I)
                  0000aaf4    000000c8     stk.aem4f : rawethsock.oem4f (.text:RawEthSockNew)
                  0000abbc    000000c8     netctrl_min_ipv4.aem4f : netsrv.oem4f (.text:SPIpNet)
                  0000ac84    000000c8     eth_network.obj (.text:tcpWorker)
                  0000ad4c    000000c4     drivers_tivaware.aem4f : EMACSnow.oem4f (.text:EMACSnow_InitDMADescriptors)
                  0000ae10    000000c4     stk.aem4f : igmp.oem4f (.text:IGMPJoinHostGroup)
                  0000aed4    000000c4     nettool_ipv4.aem4f : dhcpsm.oem4f (.text:StateBound)
                  0000af98    000000c4     sysbios.aem4f : BIOS.obj (.text:ti_sysbios_utils_Load_logLoads__I)
                  0000b05c    000000bc     stk.aem4f : sockpcb.oem4f (.text:SockPcbFind)
                  0000b118    000000bc               : vlan.oem4f (.text:VLANDeinit)
                  0000b1d4    00000004     RTOS_config_pem4f.oem4f (.text:ti_sysbios_BIOS_RtsGateProxy_enter__E)
                  0000b1d8    000000bc     sysbios.aem4f : BIOS.obj (.text:ti_sysbios_family_arm_m3_Hwi_excDebugMon__I)
                  0000b294    00000004     RTOS_config_pem4f.oem4f (.text:ti_sysbios_BIOS_RtsGateProxy_leave__E)
                  0000b298    000000bc     sysbios.aem4f : BIOS.obj (.text:ti_sysbios_family_arm_m3_Hwi_excHardFault__I)
                  0000b354    000000b8     EK_TM4C1294XL.obj (.text:EK_TM4C1294XL_initGeneral)
                  0000b40c    000000b8     stk.aem4f : icmpin.oem4f (.text:ICMPRevSrcRoute)
                  0000b4c4    000000b8               : lli.oem4f (.text:_LLITimeoutCheck)
                  0000b57c    00000004     sysbios.aem4f : BIOS.obj (.text:ti_sysbios_family_arm_lm4_Timer_masterEnable__I)
                  0000b580    000000b8                   : BIOS.obj (.text:ti_sysbios_knl_Task_unblockI__E)
                  0000b638    000000b4     stk.aem4f : tcptime.oem4f (.text:TcpTimeoutKeep)
                  0000b6ec    00000004     RTOS_config_pem4f.oem4f (.text:ti_sysbios_family_arm_m3_Hwi_delete)
                  0000b6f0    000000b4     sysbios.aem4f : BIOS.obj (.text:ti_sysbios_gates_GateMutex_enter__E)
                  0000b7a4    00000004     RTOS_config_pem4f.oem4f (.text:ti_sysbios_family_arm_m3_TaskSupport_Module__startupDone__S)
                  0000b7a8    000000b4     sysbios.aem4f : BIOS.obj (.text:ti_sysbios_knl_Task_checkStacks__E)
                  0000b85c    000000b0     stk.aem4f : rawethsock.oem4f (.text:RawEthSockSet)
                  0000b90c    00000004     RTOS_config_pem4f.oem4f (.text:ti_sysbios_heaps_HeapMem_Module_GateProxy_enter__E)
                  0000b910    000000b0     sysbios.aem4f : BIOS.obj (.text:ti_sysbios_utils_Load_idleFxn__E)
                  0000b9c0    000000b0                   : BIOS.obj (.text:ti_sysbios_utils_Load_updateLoads__E)
                  0000ba70    000000ac     stk.aem4f : rtable.oem4f (.text:RtTimeoutCheck)
                  0000bb1c    000000ac     RTOS_config_pem4f.oem4f (.text:ti_ndk_config_ip_init)
                  0000bbc8    000000ac     sysbios.aem4f : BIOS.obj (.text:ti_sysbios_family_arm_lm4_Timer_enableTiva__I)
                  0000bc74    00000004     RTOS_config_pem4f.oem4f (.text:ti_sysbios_heaps_HeapMem_Module_GateProxy_leave__E)
                  0000bc78    000000ac     sysbios.aem4f : BIOS.obj (.text:ti_sysbios_knl_Swi_post__E)
                  0000bd24    000000a8     stk.aem4f : sockint.oem4f (.text:SockCreatePacket)
                  0000bdcc    00000004     RTOS_config_pem4f.oem4f (.text:ti_sysbios_knl_Clock_TimerProxy_getMaxTicks__E)
                  0000bdd0    000000a8     sysbios.aem4f : BIOS.obj (.text:ti_sysbios_family_arm_lm4_Timer_enableTimers__I)
                  0000be78    000000a8                   : BIOS.obj (.text:ti_sysbios_knl_Task_blockI__E)
                  0000bf20    000000a0     stk.aem4f : ip.oem4f (.text:IPGetRoute)
                  0000bfc0    000000a0     auto_init.aem4f : auto_init.oem4f (.text)
                  0000c060    000000a0     ti.targets.arm.rtsarm.aem4f : Text.oem4f (.text:xdc_runtime_Text_putMod__E)
                  0000c100    0000009e     stk.aem4f : nimu.oem4f (.text:NIMUAddEthernetHeader)
                  0000c19e    0000009e     nettool_ipv4.aem4f : dhcpbild.oem4f (.text:dhcpBuildRequest)
                  0000c23c    0000009c     stk.aem4f : exec.oem4f (.text:ExecOpen)
                  0000c2d8    0000009c     rtsv7M4_T_le_v4SPD16_eabi.lib : memcpy_t2.obj (.text)
                  0000c374    00000004     RTOS_config_pem4f.oem4f (.text:ti_sysbios_knl_Clock_TimerProxy_getPeriod__E)
                  0000c378    0000009c     sysbios.aem4f : BIOS.obj (.text:ti_sysbios_knl_Semaphore_Instance_init__E)
                  0000c414    0000009a     ti.targets.arm.rtsarm.aem4f : Text.oem4f (.text:xdc_runtime_Text_putSite__E)
                  0000c4ae    00000002     os.aem4f : task.oem4f (.text:_TaskShutdown)
                  0000c4b0    00000098     netctrl_min_ipv4.aem4f : netctrl.oem4f (.text:NC_SystemOpen)
                  0000c548    00000098                            : netsrv.oem4f (.text:ServiceScan)
                  0000c5e0    00000098     Boot.aem4f : Boot.oem4f (.text:ti_catalog_arm_cortexm4_tiva_ce_Boot_sysCtlClockFreqSet__E)
                  0000c678    00000094     nettool_ipv4.aem4f : config.oem4f (.text:CfgRemoveEntry)
                  0000c70c    00000004     RTOS_config_pem4f.oem4f (.text:ti_sysbios_knl_Queue_destruct)
                  0000c710    00000094     sysbios.aem4f : BIOS.obj (.text:ti_sysbios_family_arm_m3_Hwi_Instance_init__E)
                  0000c7a4    00000004     RTOS_config_pem4f.oem4f (.text:ti_sysbios_knl_Semaphore_delete)
                  0000c7a8    00000094     sysbios.aem4f : BIOS.obj (.text:ti_sysbios_family_arm_m3_Hwi_initNVIC__E)
                  0000c83c    00000090     nettool_ipv4.aem4f : config.oem4f (.text:CfgExecute)
                  0000c8cc    00000090     stk.aem4f : igmp.oem4f (.text:IGMPMsg)
                  0000c95c    00000090     os.aem4f : mem.oem4f (.text:mmBulkAlloc)
                  0000c9ec    00000004     RTOS_config_pem4f.oem4f (.text:ti_sysbios_knl_Semaphore_destruct)
                  0000c9f0    00000090     sysbios.aem4f : BIOS.obj (.text:ti_sysbios_knl_Task_Module_startup__E)
                  0000ca80    00000090                   : BIOS.obj (.text:ti_sysbios_utils_Load_startup__E)
                  0000cb10    00000090     ti.uia.loggers.aem4f : LoggerStopMode.oem4f (.text:ti_uia_loggers_LoggerStopMode_initQueueDescriptor__E)
                  0000cba0    0000008c     drivers_tivaware.aem4f : GPIOTiva.oem4f (.text:GPIO_init)
                  0000cc2c    0000008c     stk.aem4f : ip.oem4f (.text:IPMsg)
                  0000ccb8    0000008c     os.aem4f : mem.oem4f (.text:_mmInit)
                  0000cd44    0000008c              : mem.oem4f (.text:mmInitPage)
                  0000cdd0    0000008c     sysbios.aem4f : m3_TaskSupport_asm.obj (.text:ti_sysbios_family_arm_m3_TaskSupport_buildTaskStack)
                  0000ce5c    0000008a     netctrl_min_ipv4.aem4f : netsrv.oem4f (.text:SPRoute)
                  0000cee6    00000002     hal_ser_stub.aem4f : llserstb.oem4f (.text:_llSerialServiceCheck)
                  0000cee8    00000088     netctrl_min_ipv4.aem4f : netsrv.oem4f (.text:ServiceSpawn)
                  0000cf70    00000088     stk.aem4f : sockpcb.oem4f (.text:SockPcbCtlError)
                  0000cff8    00000086     nettool_ipv4.aem4f : dhcpsm.oem4f (.text:StateRequesting)
                  0000d07e    00000002     hal_ser_stub.aem4f : llserstb.oem4f (.text:_llSerialShutdown)
                  0000d080    00000084     adc_sample.obj (.text:ADC_Seq1_ISR)
                  0000d104    00000084     nettool_ipv4.aem4f : config.oem4f (.text:CfgGetEntry)
                  0000d188    00000084     drivers_tivaware.aem4f : EMACSnow.oem4f (.text:EMACSnow_processPhyInterrupt)
                  0000d20c    00000084     stk.aem4f : tcpprot.oem4f (.text:TcpPrAttach)
                  0000d290    00000084     dsplib-cm4f.lib : arm_rms_f32.obj (.text:arm_rms_f32)
                  0000d314    00000084     os.aem4f : mem.oem4f (.text:mmBulkFree)
                  0000d398    00000084              : mem.oem4f (.text:mmFree)
                  0000d41c    00000004     RTOS_config_pem4f.oem4f (.text:ti_sysbios_knl_Swi_delete)
                  0000d420    00000084     sysbios.aem4f : BIOS.obj (.text:ti_sysbios_family_arm_m3_Hwi_postInit__I)
                  0000d4a4    00000084     driverlib.lib : udma.obj (.text:uDMAChannelTransferSet)
                  0000d528    00000082     nettool_ipv4.aem4f : dhcpsm.oem4f (.text:StateRenewRebind)
                  0000d5aa    00000002     hal_userled_stub.aem4f : llled.oem4f (.text:_llUserLedInit)
                  0000d5ac    00000080     drivers_tivaware.aem4f : EMACSnow.oem4f (.text:EMACSnow_emacStop)
                  0000d62c    00000080                            : EMACSnow.oem4f (.text:EMACSnow_processPendingTx)
                  0000d6ac    00000080     stk.aem4f : lli.oem4f (.text:LLINew)
                  0000d72c    00000080     netctrl_min_ipv4.aem4f : netsrv.oem4f (.text:NS_BootTask)
                  0000d7ac    00000080     stk.aem4f : pbm.oem4f (.text:PBM_alloc)
                  0000d82c    00000080               : raw.oem4f (.text:RawOutput)
                  0000d8ac    0000007f     RTOS_config_pem4f.oem4f (.text:ti_ndk_config_Global_NetworkIPAddr)
                  0000d92b    00000001     --HOLE-- [fill = 0]
                  0000d92c    0000007e     stk.aem4f : fileuser.oem4f (.text:fdClose)
                  0000d9aa    00000002     hal_userled_stub.aem4f : llled.oem4f (.text:_llUserLedShutdown)
                  0000d9ac    0000007c     adc_sample.obj (.text:ADC_Seq0_ISR)
                  0000da28    0000007c     nettool_ipv4.aem4f : config.oem4f (.text:CfgGetNextEntry)
                  0000daa4    0000007c     drivers_tivaware.aem4f : EMACSnow.oem4f (.text:EMACSnow_hwiIntFxn)
                  0000db20    0000007c     stk.aem4f : igmp.oem4f (.text:IGMPDoMCast)
                  0000db9c    0000007c               : igmp.oem4f (.text:IGMPJoin)
                  0000dc18    0000007c               : socket.oem4f (.text:NDK_setsockopt)
                  0000dc94    0000007c               : nimu.oem4f (.text:NIMURegister)
                  0000dd10    0000007c               : pbm.oem4f (.text:PBM_free)
                  0000dd8c    0000007a     driverlib.lib : adc.obj (.text:ADCSequenceStepConfigure)
                  0000de06    0000007a     stk.aem4f : sock.oem4f (.text:SockAccept)
                  0000de80    0000007a     rtsv7M4_T_le_v4SPD16_eabi.lib : memset_t2.obj (.text)
                  0000defa    00000002     hal_ser_stub.aem4f : llserstb.oem4f (.text:llSerialService)
                  0000defc    00000078     driverlib.lib : emac.obj (.text:EMACInit)
                  0000df74    00000078     stk.aem4f : socket.oem4f (.text:NDK_sendto)
                  0000dfec    00000078               : tcptime.oem4f (.text:TcpXmitTimer)
                  0000e064    00000078               : fileuser.oem4f (.text:fdOpenSession)
                  0000e0dc    00000078     os.aem4f : task.oem4f (.text:llExit)
                  0000e154    00000076     stk.aem4f : pipe.oem4f (.text:PipeSend)
                  0000e1ca    00000002     rtsv7M4_T_le_v4SPD16_eabi.lib : i_div0.obj (.text)
                  0000e1cc    00000075     stk.aem4f : tcptime.oem4f (.text:TcpTimeoutSackRexmt)
                  0000e241    00000001     --HOLE-- [fill = 0]
                  0000e242    00000002     RTOS_config_pem4f.oem4f (.text:ti_ndk_config_Global_NetworkClose)
                  0000e244    00000074     stk.aem4f : igmp.oem4f (.text:IGMPLeaveHostGroup)
                  0000e2b8    00000074               : nimu.oem4f (.text:NIMUShutdown)
                  0000e32c    00000074               : raweth.oem4f (.text:RawEthRxPacket)
                  0000e3a0    00000074               : sockpcb.oem4f (.text:SockPcbConnect)
                  0000e414    00000074     eth_network.obj (.text:netOpenHook)
                  0000e488    00000074     sysbios.aem4f : BIOS.obj (.text:ti_sysbios_knl_Clock_start__E)
                  0000e4fc    00000074     ti.uia.runtime.aem4f : QueueDescriptor.oem4f (.text:ti_uia_runtime_QueueDescriptor_addToList__E)
                  0000e570    00000072     os.aem4f : semaphore.oem4f (.text:SemCreateBinary)
                  0000e5e2    00000070     stk.aem4f : socket.oem4f (.text:NDK_accept)
                  0000e652    00000070               : socket.oem4f (.text:NDK_send)
                  0000e6c2    00000002     RTOS_config_pem4f.oem4f (.text:ti_sysbios_BIOS_nullFunc__I)
                  0000e6c4    00000070     stk.aem4f : rtable.oem4f (.text:RtFlush)
                  0000e734    00000070     netctrl_min_ipv4.aem4f : netsrv.oem4f (.text:SPConfig)
                  0000e7a4    00000070     stk.aem4f : sock.oem4f (.text:SockShutdown)
                  0000e814    00000070     nettool_ipv4.aem4f : dhcptags.oem4f (.text:dhcpDecodeType)
                  0000e884    0000006e     stk.aem4f : socket.oem4f (.text:NDK_recv)
                  0000e8f2    00000002     RTOS_config_pem4f.oem4f (.text:ti_uia_loggers_LoggerStopMode_setFilterLevel__E)
                  0000e8f4    0000006e     stk.aem4f : rtable.oem4f (.text:RtWalkNext)
                  0000e962    0000006e               : sockpcb.oem4f (.text:SockPcbFindRaw)
                  0000e9d0    0000006d               : node.oem4f (.text:NodeNew)
                  0000ea3d    00000001     --HOLE-- [fill = 0]
                  0000ea3e    00000002     ti.uia.loggers.aem4f : LoggerStopMode.oem4f (.text:ti_uia_loggers_LoggerStopMode_setPriority__E)
                  0000ea40    0000006d     ti.targets.arm.rtsarm.aem4f : System.oem4f (.text:xdc_runtime_System_formatNum__I)
                  0000eaad    00000001     --HOLE-- [fill = 0]
                  0000eaae    00000002     RTOS_config_pem4f.oem4f (.text:xdc_runtime_Startup_reset__I)
                  0000eab0    0000006c     os.aem4f : ossys.oem4f (.text:DbgPrintf)
                  0000eb1c    0000006c     stk.aem4f : node.oem4f (.text:NodeTreeNew)
                  0000eb88    0000006c               : raweth.oem4f (.text:RawEthTxPacket)
                  0000ebf4    0000006c               : udp.oem4f (.text:UdpChecksum)
                  0000ec60    0000006c     dsplib-cm4f.lib : arm_offset_f32.obj (.text:arm_offset_f32)
                  0000eccc    0000006c                     : arm_scale_f32.obj (.text:arm_scale_f32)
                  0000ed38    0000006c     sysbios.aem4f : BIOS.obj (.text:ti_sysbios_knl_Swi_restoreHwi__E)
                  0000eda4    00000004     RTOS_config_pem4f.oem4f (.text:ti_sysbios_knl_Task_delete)
                  0000eda8    0000006c     sysbios.aem4f : BIOS.obj (.text:ti_sysbios_utils_Load_taskCreateHook__E)
                  0000ee14    0000006c     ti.targets.arm.rtsarm.aem4f : Error.oem4f (.text:xdc_runtime_Error_print__E)
                  0000ee80    0000006c                                 : Memory.oem4f (.text:xdc_runtime_Memory_alloc__E)
                  0000eeec    0000006a     stk.aem4f : tcpprot.oem4f (.text:TcpPrInherit)
                  0000ef56    00000002     --HOLE-- [fill = 0]
                  0000ef58    00000068     driverlib.lib : interrupt.obj (.text:IntEnable)
                  0000efc0    00000068     stk.aem4f : socket.oem4f (.text:NDK_socket)
                  0000f028    00000068               : pbm.oem4f (.text:PBM_open)
                  0000f090    00000068               : sock.oem4f (.text:SockListen)
                  0000f0f8    00000068     adc_sample.obj (.text:TIMER_ADC_init)
                  0000f160    00000068     stk.aem4f : rtable.oem4f (.text:_RtNodeInsert)
                  0000f1c8    00000068     rtsv7M4_T_le_v4SPD16_eabi.lib : copy_decompress_lzss.obj (.text:decompress:lzss)
                  0000f230    00000068                                   : trgmsg.obj (.text)
                  0000f298    00000068     sysbios.aem4f : BIOS.obj (.text:ti_sysbios_utils_Load_addTask__E)
                  0000f300    00000066     ti.uia.loggers.aem4f : LoggerStopMode.oem4f (.text:ti_uia_loggers_LoggerStopMode_flush__E)
                  0000f366    00000066     ti.targets.arm.rtsarm.aem4f : Core-mem.oem4f (.text:xdc_runtime_Core_deleteObject__I)
                  0000f3cc    00000064     nettool_ipv4.aem4f : config.oem4f (.text:CfgFree)
                  0000f430    00000064     drivers_tivaware.aem4f : GPIOTiva.oem4f (.text:GPIO_hwiIntFxn)
                  0000f494    00000064     stk.aem4f : pbm.oem4f (.text:PBMQ_enq)
                  0000f4f8    00000064               : sockint.oem4f (.text:SockSpawnAbort)
                  0000f55c    00000064     hal_timer_bios.aem4f : lltimer.oem4f (.text:llTimerTick)
                  0000f5c0    00000064     sysbios.aem4f : BIOS.obj (.text:ti_sysbios_family_arm_lm4_Timer_Module_startup__E)
                  0000f624    00000064     RTOS_config_pem4f.oem4f (.text:ti_sysbios_family_arm_m3_Hwi_create)
                  0000f688    00000064     stk.aem4f : lliin.oem4f (.text:updateRtTable)
                  0000f6ec    00000062               : ipin.oem4f (.text:IPRouteIP)
                  0000f74e    00000002     --HOLE-- [fill = 0]
                  0000f750    00000062               : sb.oem4f (.text:SBNew)
                  0000f7b2    00000002     --HOLE-- [fill = 0]
                  0000f7b4    00000060     nettool_ipv4.aem4f : config.oem4f (.text:CfgGetEntryCnt)
                  0000f814    00000060     stk.aem4f : file.oem4f (.text:FdWaitEvent)
                  0000f874    00000060               : nimu.oem4f (.text:NIMUUnregister)
                  0000f8d4    00000060               : node.oem4f (.text:NodeFind)
                  0000f934    00000060               : rtc.oem4f (.text:RTCMsg)
                  0000f994    00000060               : tcp.oem4f (.text:TcpChecksum)
                  0000f9f4    00000060     driverlib.lib : timer.obj (.text:TimerConfigure)
                  0000fa54    00000060     nettool_ipv4.aem4f : dhcptags.oem4f (.text:dhcpBuildOptions)
                  0000fab4    00000004     ti.uia.loggers.aem4f : LoggerStopMode.oem4f (.text:ti_uia_loggers_LoggerStopMode_getContents__E)
                  0000fab8    00000060     sysbios.aem4f : BIOS.obj (.text:ti_sysbios_family_arm_lm4_Timer_isrStub__E)
                  0000fb18    00000060                   : BIOS.obj (.text:ti_sysbios_knl_Clock_logTick__E)
                  0000fb78    00000060                   : BIOS.obj (.text:ti_sysbios_utils_Load_logCPULoad__I)
                  0000fbd8    00000060                   : BIOS.obj (.text:ti_sysbios_utils_Load_updateCurrentThreadTime__E)
                  0000fc38    0000005e     stk.aem4f : route.oem4f (.text:RtRemove)
                  0000fc96    0000005e     nettool_ipv4.aem4f : dhcpsm.oem4f (.text:StateSelecting)
                  0000fcf4    0000005e     stk.aem4f : vlan.oem4f (.text:VLANReceivePacket)
                  0000fd52    00000002     --HOLE-- [fill = 0]
                  0000fd54    0000005c     nettool_ipv4.aem4f : config.oem4f (.text:CfgSetExecuteOrder)
                  0000fdb0    0000005c     stk.aem4f : nimu.oem4f (.text:NIMUIoctlSpecialCmd)
                  0000fe0c    0000005c     netctrl_min_ipv4.aem4f : netsrv.oem4f (.text:SPService)
                  0000fe68    0000005c     RTOS_config_pem4f.oem4f (.text:ti_sysbios_knl_Swi_create)
                  0000fec4    00000004     RTOS_config_pem4f.oem4f (.text:ti_uia_loggers_LoggerStopMode_getFilterLevel__E)
                  0000fec8    0000005c     sysbios.aem4f : BIOS.obj (.text:ti_sysbios_knl_Swi_schedule__I)
                  0000ff24    0000005c     RTOS_config_pem4f.oem4f (.text:ti_sysbios_knl_Task_create)
                  0000ff80    0000005b     ti.targets.arm.rtsarm.aem4f : Text.oem4f (.text:xdc_runtime_Text_putLab__E)
                  0000ffdb    00000001     --HOLE-- [fill = 0]
                  0000ffdc    0000005a     stk.aem4f : route.oem4f (.text:RtRedirect)
                  00010036    0000005a               : tcpprot.oem4f (.text:TcpValidateMetrics)
                  00010090    0000005a     nettool_ipv4.aem4f : dhcpbild.oem4f (.text:dhcpBuildDecline)
                  000100ea    0000005a     os.aem4f : mem.oem4f (.text:mmCopy)
                  00010144    0000005a     RTOS_config_pem4f.oem4f (.text:ti_ndk_config_tcp_init)
                  0001019e    00000002     --HOLE-- [fill = 0]
                  000101a0    00000058     stk.aem4f : bind.oem4f (.text:BindFree)
                  000101f8    00000058     boot.aem4f : boot.oem4f (.text)
                  00010250    00000058     driverlib.lib : emac.obj (.text:EMACPHYConfigSet)
                  000102a8    00000058     stk.aem4f : igmp.oem4f (.text:IGMPTimer)
                  00010300    00000058     os.aem4f : semaphore.oem4f (.text:SemCreate)
                  00010358    00000058     driverlib.lib : timer.obj (.text:TimerControlTrigger)
                  000103b0    00000058     sysbios.aem4f : m3_Hwi_asm_switch.obj (.text:ti_sysbios_family_arm_m3_Hwi_initStacks__E)
                  00010408    00000056     driverlib.lib : gpio.obj (.text:GPIOIntTypeSet)
                  0001045e    00000002     --HOLE-- [fill = 0]
                  00010460    00000054     nettool_ipv4.aem4f : config.oem4f (.text:CfgEntryDeRef)
                  000104b4    00000054     stk.aem4f : igmp.oem4f (.text:IGMPLeave)
                  00010508    00000054               : rawethsock_pcb.oem4f (.text:RawEthSockPcbAttach)
                  0001055c    00000054               : sockpcb.oem4f (.text:SockCleanPcb)
                  000105b0    00000054               : tcptime.oem4f (.text:TcpTimeoutPersist)
                  00010604    00000054     rtsv7M4_T_le_v4SPD16_eabi.lib : exit.obj (.text)
                  00010658    00000054     sysbios.aem4f : BIOS.obj (.text:ti_sysbios_knl_Swi_Instance_finalize__E)
                  000106ac    00000004     ti.uia.loggers.aem4f : LoggerStopMode.oem4f (.text:ti_uia_loggers_LoggerStopMode_getInstanceId__E)
                  000106b0    00000054     sysbios.aem4f : BIOS.obj (.text:ti_sysbios_utils_Load_taskSwitchHook__E)
                  00010704    00000054     ti.targets.arm.rtsarm.aem4f : Assert.oem4f (.text:xdc_runtime_Assert_raise__I)
                  00010758    00000052     stk.aem4f : tcpprot.oem4f (.text:TcpPrDetach)
                  000107aa    00000002     --HOLE-- [fill = 0]
                  000107ac    00000050     drivers_tivaware.aem4f : GPIOTiva.oem4f (.text:GPIO_setCallback)
                  000107fc    00000050                            : GPIOTiva.oem4f (.text:GPIO_toggle)
                  0001084c    00000050     stk.aem4f : socket.oem4f (.text:NDK_bind)
                  0001089c    00000050               : route.oem4f (.text:RtNew)
                  000108ec    00000050     driverlib.lib : sysctl.obj (.text:SysCtlPeripheralReset)
                  0001093c    00000050     Boot.aem4f : Boot_sysctl.oem4f (.text:_SysCtlFrequencyGet)
                  0001098c    00000004     ti.uia.loggers.aem4f : LoggerStopMode.oem4f (.text:ti_uia_loggers_LoggerStopMode_getMaxLength__E)
                  00010990    00000050     sysbios.aem4f : BIOS.obj (.text:ti_sysbios_family_arm_m3_Hwi_Module_startup__E)
                  000109e0    00000050     ti.targets.arm.rtsarm.aem4f : Startup.oem4f (.text:xdc_runtime_Startup_exec__E)
                  00010a30    00000050                                 : Text.oem4f (.text:xdc_runtime_Text_visitRope2__I)
                  00010a80    0000004e     stk.aem4f : node.oem4f (.text:NodeDeRef)
                  00010ace    0000004e     nettool_ipv4.aem4f : config.oem4f (.text:_CfgEntryScan)
                  00010b1c    0000004c                        : ipaddr.oem4f (.text:NtAddNetwork)
                  00010b68    0000004c     stk.aem4f : sockint.oem4f (.text:SockValidateRoute)
                  00010bb4    0000004c     rtsv7M4_T_le_v4SPD16_eabi.lib : cpy_tbl.obj (.text)
                  00010c00    0000004c     sysbios.aem4f : BIOS.obj (.text:ti_sysbios_heaps_HeapMem_getStats__E)
                  00010c4c    00000004     ti.uia.loggers.aem4f : LoggerStopMode.oem4f (.text:ti_uia_loggers_LoggerStopMode_getPriority__E)
                  00010c50    0000004c     sysbios.aem4f : BIOS.obj (.text:ti_sysbios_knl_Swi_runLoop__I)
                  00010c9c    00000004     ti.uia.loggers.aem4f : LoggerStopMode.oem4f (.text:ti_uia_loggers_LoggerStopMode_getTransferType__E)
                  00010ca0    0000004c     sysbios.aem4f : BIOS.obj (.text:ti_sysbios_knl_Task_allBlockedFunction__I)
                  00010cec    0000004c     ti.uia.loggers.aem4f : LoggerStopMode.oem4f (.text:ti_uia_loggers_LoggerStopMode_Module_startup__E)
                  00010d38    0000004b     main.obj (.text:main)
                  00010d83    00000001     --HOLE-- [fill = 0]
                  00010d84    0000004a     netctrl_min_ipv4.aem4f : netsrv.oem4f (.text:ServiceKill)
                  00010dce    0000004a     stk.aem4f : sock.oem4f (.text:SockDisconnect)
                  00010e18    0000004a               : timer.oem4f (.text:TimerNew)
                  00010e62    00000048     nettool_ipv4.aem4f : config.oem4f (.text:CfgNew)
                  00010eaa    00000002     --HOLE-- [fill = 0]
                  00010eac    00000048     driverlib.lib : gpio.obj (.text:GPIOPinConfigure)
                  00010ef4    00000048     stk.aem4f : lli.oem4f (.text:LLIMsg)
                  00010f3c    00000048               : node.oem4f (.text:NodeWalk)
                  00010f84    00000048               : rawethsock_pcb.oem4f (.text:RawEthSockPcbDetach)
                  00010fcc    00000048               : sockpcb.oem4f (.text:SockPcbResolveChain)
                  00011014    00000048               : tcpprot.oem4f (.text:TcpDrop)
                  0001105c    00000048               : lli.oem4f (.text:_LLIExpListInsert)
                  000110a4    00000048               : rtable.oem4f (.text:_RtExpListInsert)
                  000110ec    00000048     driverlib.lib : sysctl.obj (.text:_SysCtlFrequencyGet)
                  00011134    00000048     dsplib-cm4f.lib : arm_copy_f32.obj (.text:arm_copy_f32)
                  0001117c    00000048     stk.aem4f : file.oem4f (.text:fdint_lockfd)
                  000111c4    00000004     ti.targets.arm.rtsarm.aem4f : Error.oem4f (.text:xdc_runtime_Error_getMsg__E)
                  000111c8    00000048     sysbios.aem4f : BIOS.obj (.text:ti_sysbios_family_arm_m3_Hwi_disableInterrupt__E)
                  00011210    00000048                   : BIOS.obj (.text:ti_sysbios_family_arm_m3_Hwi_enableInterrupt__E)
                  00011258    00000048                   : BIOS.obj (.text:ti_sysbios_family_arm_m3_Hwi_excReserved__I)
                  000112a0    00000048                   : BIOS.obj (.text:ti_sysbios_knl_Task_deleteTerminatedTasksFunc__I)
                  000112e8    00000048                   : BIOS.obj (.text:ti_sysbios_utils_Load_taskDeleteHook__E)
                  00011330    00000048     driverlib.lib : udma.obj (.text:uDMAChannelAttributeDisable)
                  00011378    00000048                   : udma.obj (.text:uDMAChannelAttributeEnable)
                  000113c0    00000046     nettool_ipv4.aem4f : ipaddr.oem4f (.text:NtIfIdx2Ip)
                  00011406    00000046     stk.aem4f : rawethsock.oem4f (.text:RawEthSockSend)
                  0001144c    00000046               : tcpprot.oem4f (.text:TcpPrCtlError)
                  00011492    00000046     os.aem4f : mem.oem4f (.text:mmZeroInit)
                  000114d8    00000046     ti.targets.arm.rtsarm.aem4f : Core-params.oem4f (.text:xdc_runtime_Core_assignParams__I)
                  0001151e    00000002     --HOLE-- [fill = 0]
                  00011520    00000044     drivers_tivaware.aem4f : EMACSnow.oem4f (.text:EMACSnow_processTransmitted)
                  00011564    00000044     stk.aem4f : icmp.oem4f (.text:ICMPChecksum)
                  000115a8    00000044               : ipfrag.oem4f (.text:IPReasmFree)
                  000115ec    00000044               : lli.oem4f (.text:LLIGetValidTime)
                  00011630    00000044               : rtable.oem4f (.text:RouteMsg)
                  00011674    00000044               : rtable.oem4f (.text:RtWalkEnd)
                  000116b8    00000044               : sockpcb.oem4f (.text:SockPcbDetach)
                  000116fc    00000044               : timer.oem4f (.text:TimerListInsert)
                  00011740    00000044     hal_timer_bios.aem4f : lltimer.oem4f (.text:llTimerGetTime)
                  00011784    00000004     ti.targets.arm.rtsarm.aem4f : Error.oem4f (.text:xdc_runtime_Error_getSite__E)
                  00011788    00000044     sysbios.aem4f : BIOS.obj (.text:ti_sysbios_family_arm_lm4_Timer_stop__E)
                  000117cc    00000004     RTOS_config_pem4f.oem4f (.text:xdc_runtime_System_Module_GateProxy_enter__E)
                  000117d0    00000044     sysbios.aem4f : BIOS.obj (.text:ti_sysbios_family_arm_m3_Hwi_getStackInfo__E)
                  00011814    00000004     RTOS_config_pem4f.oem4f (.text:xdc_runtime_System_Module_GateProxy_leave__E)
                  00011818    00000044     sysbios.aem4f : BIOS.obj (.text:ti_sysbios_utils_Load_removeTask__E)
                  0001185c    00000044     ti.uia.loggers.aem4f : LoggerStopMode.oem4f (.text:ti_uia_loggers_LoggerStopMode_initBuffer__I)
                  000118a0    00000044     ti.targets.arm.rtsarm.aem4f : Error.oem4f (.text:xdc_runtime_Error_setX__E)
                  000118e4    00000044                                 : SysMin.oem4f (.text:xdc_runtime_SysMin_flush__E)
                  00011928    00000044                                 : Text.oem4f (.text:xdc_runtime_Text_xprintf__I)
                  0001196c    00000042     stk.aem4f : socket.oem4f (.text:NDK_listen)
                  000119ae    00000042               : tcpprot.oem4f (.text:TcpPrSendOOB)
                  000119f0    00000042               : fileuser.oem4f (.text:fdCloseSession)
                  00011a32    00000002     --HOLE-- [fill = 0]
                  00011a34    00000040               : lliin.oem4f (.text:LLIValidateRoute)
                  00011a74    00000040               : pbm.oem4f (.text:PBM_copy)
                  00011ab4    00000040               : sockpcb.oem4f (.text:SockPcbRtChange)
                  00011af4    00000040               : tcpprot.oem4f (.text:TcpPrSend)
                  00011b34    00000040     rtsv7M4_T_le_v4SPD16_eabi.lib : u_divt2.obj (.text)
                  00011b74    00000004     ti.targets.arm.rtsarm.aem4f : System.oem4f (.text:xdc_runtime_System_aprintf_va__F)
                  00011b78    00000040     sysbios.aem4f : BIOS.obj (.text:ti_sysbios_family_arm_lm4_Timer_startup__E)
                  00011bb8    0000003e     driverlib.lib : adc.obj (.text:ADCSequenceConfigure)
                  00011bf6    0000003e     nettool_ipv4.aem4f : dhcpmain.oem4f (.text:DHCPClose)
                  00011c34    0000003e     stk.aem4f : nimu.oem4f (.text:NIMUAllocateName)
                  00011c72    0000003e     os.aem4f : task.oem4f (.text:TaskCreate)
                  00011cb0    0000003e     stk.aem4f : tcpprot.oem4f (.text:TcpPrDisconnect)
                  00011cee    0000003e               : file.oem4f (.text:fdint_unlockfd)
                  00011d2c    0000003c     nettool_ipv4.aem4f : config.oem4f (.text:CfgEntryGetData)
                  00011d68    0000003c     driverlib.lib : emac.obj (.text:EMACIntDisable)
                  00011da4    0000003c     stk.aem4f : node.oem4f (.text:NodeUpdatePL)
                  00011de0    0000003c               : rtable.oem4f (.text:RtWalkBegin)
                  00011e1c    0000003c               : tcpprot.oem4f (.text:TcpPrConnect)
                  00011e58    0000003c               : tcptime.oem4f (.text:TcpSetPersist)
                  00011e94    0000003c               : rtc.oem4f (.text:_RTCSendRtAdv)
                  00011ed0    0000003c               : rtable.oem4f (.text:_RtNodeRemove)
                  00011f0c    0000003c     hal_timer_bios.aem4f : lltimer.oem4f (.text:_llTimerInit)
                  00011f48    0000003c     sysbios.aem4f : BIOS.obj (.text:ti_sysbios_family_arm_m3_Hwi_excSvCall__I)
                  00011f84    00000004     ti.targets.arm.rtsarm.aem4f : System.oem4f (.text:xdc_runtime_System_printf_va__F)
                  00011f88    0000003c     sysbios.aem4f : BIOS.obj (.text:ti_sysbios_heaps_HeapMem_init__I)
                  00011fc4    00000004     --HOLE-- [fill = 0]
                  00011fc8    0000003c                   : BIOS.obj (.text:ti_sysbios_knl_Swi_startup__E)
                  00012004    0000003a     driverlib.lib : emac.obj (.text:EMACIntEnable)
                  0001203e    00000002     --HOLE-- [fill = 0]
                  00012040    00000038                   : emac.obj (.text:EMACConfigGet)
                  00012078    00000038     stk.aem4f : ipfrag.oem4f (.text:IPReasmTimeout)
                  000120b0    00000038               : node.oem4f (.text:NodeGetRt)
                  000120e8    00000038     driverlib.lib : sysctl.obj (.text:SysCtlPeripheralReady)
                  00012120    00000038     stk.aem4f : tcpprot.oem4f (.text:TcpClose)
                  00012158    00000038               : timer.oem4f (.text:TimerHSTick)
                  00012190    00000038     nettool_ipv4.aem4f : dhcpbild.oem4f (.text:dhcpBuildDiscover)
                  000121c8    00000038                        : dhcptags.oem4f (.text:dhcpOptionsClear)
                  00012200    00000038     stk.aem4f : file.oem4f (.text:fdint_waitevent)
                  00012238    00000038     sysbios.aem4f : BIOS.obj (.text:ti_sysbios_family_arm_m3_Hwi_excNoIsr__I)
                  00012270    00000038     RTOS_config_pem4f.oem4f (.text:ti_sysbios_knl_Clock_create)
                  000122a8    00000038     sysbios.aem4f : BIOS.obj (.text:ti_sysbios_knl_Task_processVitalTaskFlag__I)
                  000122e0    00000038     ti.targets.arm.rtsarm.aem4f : SysMin.oem4f (.text:xdc_runtime_SysMin_putch__E)
                  00012318    00000038                                 : System.oem4f (.text:xdc_runtime_System_atexit__E)
                  00012350    00000036     stk.aem4f : ip.oem4f (.text:IPChecksum)
                  00012386    00000002     --HOLE-- [fill = 0]
                  00012388    00000034     nettool_ipv4.aem4f : config.oem4f (.text:CfgSetService)
                  000123bc    00000034     driverlib.lib : emac.obj (.text:EMACConfigSet)
                  000123f0    00000034                   : emac.obj (.text:EMACIntClear)
                  00012424    00000034     drivers_tivaware.aem4f : EMACSnow.oem4f (.text:EMACSnow_emacPoll)
                  00012458    00000034                            : EMACSnow.oem4f (.text:EMACSnow_isLinkUp)
                  0001248c    00000034                            : EMAC.oem4f (.text:EMAC_init)
                  000124c0    00000034     stk.aem4f : exec.oem4f (.text:ExecClose)
                  000124f4    00000034               : nimu.oem4f (.text:NIMUFindByName)
                  00012528    00000034               : nimu.oem4f (.text:NIMUInit)
                  0001255c    00000034               : rawethsock.oem4f (.text:RawEthSockNotify)
                  00012590    00000034               : sockprot.oem4f (.text:SockPrCtlError)
                  000125c4    00000034     driverlib.lib : sysctl.obj (.text:SysCtlPeripheralEnable)
                  000125f8    00000034     os.aem4f : mem.oem4f (.text:mmUnInitPage)
                  0001262c    00000004     --HOLE-- [fill = 0]
                  00012630    00000034     sysbios.aem4f : BIOS.obj (.text:ti_sysbios_family_arm_m3_Hwi_Instance_finalize__E)
                  00012664    00000004     --HOLE-- [fill = 0]
                  00012668    00000034                   : BIOS.obj (.text:ti_sysbios_family_arm_m3_Hwi_excNmi__I)
                  0001269c    00000004     --HOLE-- [fill = 0]
                  000126a0    00000034                   : BIOS.obj (.text:ti_sysbios_hal_Hwi_checkStack)
                  000126d4    00000034     RTOS_config_pem4f.oem4f (.text:ti_sysbios_knl_Semaphore_create)
                  00012708    00000034     ti.uia.loggers.aem4f : LoggerStopMode.oem4f (.text:ti_uia_loggers_LoggerStopMode_reset__E)
                  0001273c    00000034     ti.targets.arm.rtsarm.aem4f : Core-label.oem4f (.text:xdc_runtime_Core_assignLabel__I)
                  00012770    00000033                                 : Text.oem4f (.text:xdc_runtime_Text_printVisFxn__I)
                  000127a3    00000001     --HOLE-- [fill = 0]
                  000127a4    00000032     nettool_ipv4.aem4f : config.oem4f (.text:CfgGetImmediate)
                  000127d6    00000032     stk.aem4f : route.oem4f (.text:RtDeRef)
                  00012808    00000032               : route.oem4f (.text:RtSetFailure)
                  0001283a    00000032               : sb.oem4f (.text:SBFlush)
                  0001286c    00000032               : sb.oem4f (.text:SBSetMax)
                  0001289e    00000032               : sock.oem4f (.text:SockIntAbort)
                  000128d0    00000032     nettool_ipv4.aem4f : config.oem4f (.text:_CfgAcquire)
                  00012902    00000032                        : dhcpsm.oem4f (.text:dhcpIPRemove)
                  00012934    00000004     --HOLE-- [fill = 0]
                  00012938    00000032     sysbios.aem4f : BIOS.obj (.text:ti_sysbios_hal_Hwi_initStack)
                  0001296a    00000006     driverlib.lib : emac.obj (.text:EMACRxDMADescriptorListSet)
                  00012970    00000032     sysbios.aem4f : BIOS.obj (.text:ti_sysbios_knl_Semaphore_pendTimeout__I)
                  000129a2    00000030     driverlib.lib : emac.obj (.text:EMACAddrSet)
                  000129d2    00000002     --HOLE-- [fill = 0]
                  000129d4    00000030     drivers_tivaware.aem4f : EMACSnow.oem4f (.text:EMACSnow_handlePackets)
                  00012a04    00000030     netctrl_min_ipv4.aem4f : netsrv.oem4f (.text:NS_PreBoot)
                  00012a34    00000030     stk.aem4f : sock.oem4f (.text:SockBind)
                  00012a64    00000030               : sock.oem4f (.text:SockGetName)
                  00012a94    00000030     nettool_ipv4.aem4f : dhcpsock.oem4f (.text:dhcpPacketSend)
                  00012ac4    00000030     stk.aem4f : listlib.oem4f (.text:list_remove_node)
                  00012af4    00000030     RTOS_config_pem4f.oem4f (.text:ti_sysbios_BIOS_atExitFunc__I)
                  00012b24    00000004     --HOLE-- [fill = 0]
                  00012b28    00000030     sysbios.aem4f : BIOS.obj (.text:ti_sysbios_family_arm_m3_TaskSupport_start__E)
                  00012b58    00000030     RTOS_config_pem4f.oem4f (.text:ti_sysbios_gates_GateHwi_Object__create__S)
                  00012b88    00000030     RTOS_config_pem4f.oem4f (.text:ti_sysbios_gates_GateMutex_Object__create__S)
                  00012bb8    00000030     RTOS_config_pem4f.oem4f (.text:ti_sysbios_heaps_HeapMem_Object__create__S)
                  00012be8    00000030     RTOS_config_pem4f.oem4f (.text:ti_sysbios_knl_Semaphore_construct)
                  00012c18    00000030     RTOS_config_pem4f.oem4f (.text:ti_uia_loggers_LoggerStopMode_Object__create__S)
                  00012c48    00000030     ti.targets.arm.rtsarm.aem4f : SysMin.oem4f (.text:xdc_runtime_SysMin_abort__E)
                  00012c78    00000030                                 : System.oem4f (.text:xdc_runtime_System_processAtExit__E)
                  00012ca8    0000002e     stk.aem4f : sb.oem4f (.text:SBFree)
                  00012cd6    0000002c     driverlib.lib : emac.obj (.text:EMACIntStatus)
                  00012d02    0000002c     stk.aem4f : file.oem4f (.text:FdSignalEvent)
                  00012d2e    00000002     --HOLE-- [fill = 0]
                  00012d30    0000002c               : igmp.oem4f (.text:IGMPTestGroup)
                  00012d5c    0000002c     os.aem4f : task.oem4f (.text:NDK_hookCreate)
                  00012d88    0000002c     stk.aem4f : nimu.oem4f (.text:NIMUAllocateIndex)
                  00012db4    0000002c               : nimu.oem4f (.text:NIMUPacketServiceCheck)
                  00012de0    0000002c               : pipe.oem4f (.text:PipeClose)
                  00012e0c    0000002c               : sockpcb.oem4f (.text:SockPcbAttach)
                  00012e38    0000002c               : lli.oem4f (.text:_LLIExpListRemove)
                  00012e64    0000002c               : lli.oem4f (.text:_LLITimeoutFlush)
                  00012e90    0000002c               : rtable.oem4f (.text:_RtExpListRemove)
                  00012ebc    0000002c     RTOS_config_pem4f.oem4f (.text:ti_sysbios_knl_Clock_doTick__I)
                  00012ee8    0000002c     RTOS_config_pem4f.oem4f (.text:ti_sysbios_knl_Queue_construct)
                  00012f14    00000004     --HOLE-- [fill = 0]
                  00012f18    0000002c     sysbios.aem4f : BIOS.obj (.text:ti_sysbios_knl_Task_restore__E)
                  00012f44    0000002c     driverlib.lib : udma.obj (.text:uDMAChannelAssign)
                  00012f70    0000002c     ti.targets.arm.rtsarm.aem4f : Text.oem4f (.text:xdc_runtime_Text_cordText__E)
                  00012f9c    0000002a     driverlib.lib : gpio.obj (.text:GPIODirModeSet)
                  00012fc6    0000002a     stk.aem4f : pbm.oem4f (.text:PBMQ_deq)
                  00012ff0    0000002a     netctrl_min_ipv4.aem4f : netsrv.oem4f (.text:ServiceCallback)
                  0001301a    0000002a     nettool_ipv4.aem4f : config.oem4f (.text:_CfgRelease)
                  00013044    0000002a     ti.targets.arm.rtsarm.aem4f : System.oem4f (.text:xdc_runtime_System_putchar__I)
                  0001306e    00000002     --HOLE-- [fill = 0]
                  00013070    00000028     stk.aem4f : bind.oem4f (.text:BindFindByNet)
                  00013098    00000028               : lli.oem4f (.text:LLIFree)
                  000130c0    00000028     netctrl_min_ipv4.aem4f : netctrl.oem4f (.text:NC_SystemClose)
                  000130e8    00000028     stk.aem4f : nimu.oem4f (.text:NIMUCreatePacket)
                  00013110    00000028               : nimu.oem4f (.text:NIMUPacketService)
                  00013138    00000028               : tcpin.oem4f (.text:TcpEnterTimeWait)
                  00013160    00000028               : timer.oem4f (.text:TimerListRemove)
                  00013188    00000028               : vlan.oem4f (.text:VLANFindSourceInterface)
                  000131b0    00000028               : vlan.oem4f (.text:VLANInit)
                  000131d8    00000028     nettool_ipv4.aem4f : dhcpsock.oem4f (.text:dhcpPacketReceive)
                  00013200    00000028     rtsv7M4_T_le_v4SPD16_eabi.lib : e_sqrtf.obj (.text)
                  00013228    00000028     drivers_tivaware.aem4f : EMACSnow.oem4f (.text:signalLinkChange)
                  00013250    00000028     RTOS_config_pem4f.oem4f (.text:ti_sysbios_BIOS_startFunc__I)
                  00013278    00000028     sysbios.aem4f : BIOS.obj (.text:ti_sysbios_knl_Swi_Module_startup__E)
                  000132a0    00000028     driverlib.lib : udma.obj (.text:uDMAChannelModeGet)
                  000132c8    00000026     nettool_ipv4.aem4f : config.oem4f (.text:CfgEntryInfo)
                  000132ee    00000026     driverlib.lib : emac.obj (.text:EMACPHYRead)
                  00013314    00000026                   : emac.obj (.text:EMACPHYWrite)
                  0001333a    00000026     stk.aem4f : rawethsock.oem4f (.text:RawEthSockClose)
                  00013360    00000026     RTOS_config_pem4f.oem4f (.text:ti_ndk_config_udp_init)
                  00013386    00000026     sysbios.aem4f : m3_Hwi_asm.obj (.text:ti_sysbios_family_arm_m3_Hwi_pendSV__I)
                  000133ac    00000026     ti.targets.arm.rtsarm.aem4f : System.oem4f (.text:xdc_runtime_System_avprintf__E)
                  000133d2    00000002     --HOLE-- [fill = 0]
                  000133d4    00000024     stk.aem4f : bind.oem4f (.text:BindFindByHost)
                  000133f8    00000024               : bind.oem4f (.text:BindGetIFByDBCast)
                  0001341c    00000024     drivers_tivaware.aem4f : EMACSnow.oem4f (.text:EMACSnow_pkt_service)
                  00013440    00000024                            : EMACSnow.oem4f (.text:EMACSnow_primeRx)
                  00013464    00000024     stk.aem4f : exec.oem4f (.text:ExecTimer)
                  00013488    00000024               : nimu.oem4f (.text:NIMUFindByIndex)
                  000134ac    00000024               : rtc.oem4f (.text:RTCAddHook)
                  000134d0    00000024               : rawethsock_pcb.oem4f (.text:RawEthSockPcbFind)
                  000134f4    00000024               : route.oem4f (.text:RtFree)
                  00013518    00000024               : route.oem4f (.text:RtSetTimeout)
                  0001353c    00000024               : sockpcb.oem4f (.text:SockPcbCleanup)
                  00013560    00000024               : tcpprot.oem4f (.text:TcpPrListen)
                  00013584    00000024               : tcptime.oem4f (.text:TcpTimeoutWait2)
                  000135a8    00000024     nettool_ipv4.aem4f : config.oem4f (.text:_CfgEntryProcess)
                  000135cc    00000024     RTOS_config_pem4f.oem4f (.text:ti_sysbios_BIOS_registerRTSLock__I)
                  000135f0    00000024     RTOS_config_pem4f.oem4f (.text:ti_sysbios_BIOS_removeRTSLock__I)
                  00013614    00000004     --HOLE-- [fill = 0]
                  00013618    00000024     sysbios.aem4f : BIOS.obj (.text:ti_sysbios_family_arm_m3_Hwi_doTaskRestore__I)
                  0001363c    00000024     RTOS_config_pem4f.oem4f (.text:ti_sysbios_gates_GateMutex_Object__delete__S)
                  00013660    00000024     sysbios.aem4f : BIOS.obj (.text:ti_sysbios_knl_Clock_Module_startup__E)
                  00013684    00000024     RTOS_config_pem4f.oem4f (.text:ti_sysbios_knl_Semaphore_Object__delete__S)
                  000136a8    00000024     driverlib.lib : udma.obj (.text:uDMAChannelControlSet)
                  000136cc    00000024     ti.targets.arm.rtsarm.aem4f : System.oem4f (.text:xdc_runtime_System_vprintf__E)
                  000136f0    00000022     nettool_ipv4.aem4f : config.oem4f (.text:CfgEntryRef)
                  00013712    00000022     stk.aem4f : vlan.oem4f (.text:VLANFindNode)
                  00013734    00000022     eth_network.obj (.text:setsockopt)
                  00013756    00000002     --HOLE-- [fill = 0]
                  00013758    00000022     sysbios.aem4f : BIOS.obj (.text:ti_sysbios_family_arm_lm4_Timer_write__I)
                  0001377a    00000022     RTOS_config_pem4f.oem4f (.text:xdc_runtime_SysMin_output__I)
                  0001379c    00000020     netctrl_min_ipv4.aem4f : netctrl.oem4f (.text:NC_BootComplete)
                  000137bc    00000020     stk.aem4f : nimu.oem4f (.text:NIMUGetNumOfObject)
                  000137dc    00000020               : rtc.oem4f (.text:RTCRemoveHook)
                  000137fc    00000020               : tcp.oem4f (.text:TcpTimeoutRemove)
                  0001381c    00000020     Boot.aem4f : Boot_sysctl.oem4f (.text:_SysCtlMemTimingGet)
                  0001383c    00000020     RTOS_config_pem4f.oem4f (.text:ti_sysbios_BIOS_rtsLock__I)
                  0001385c    00000020     RTOS_config_pem4f.oem4f (.text:ti_sysbios_family_arm_m3_Hwi_Object__delete__S)
                  0001387c    00000020     sysbios.aem4f : m3_Hwi_asm.obj (.text:ti_sysbios_family_arm_m3_Hwi_excHandlerAsm__I)
                  0001389c    00000004     --HOLE-- [fill = 0]
                  000138a0    00000020                   : BIOS.obj (.text:ti_sysbios_family_arm_m3_Hwi_excHandler__I)
                  000138c0    00000020     RTOS_config_pem4f.oem4f (.text:ti_sysbios_gates_GateHwi_Object__delete__S)
                  000138e0    00000020     RTOS_config_pem4f.oem4f (.text:ti_sysbios_heaps_HeapMem_Object__delete__S)
                  00013900    00000020     sysbios.aem4f : BIOS.obj (.text:ti_sysbios_knl_Idle_run__E)
                  00013920    00000020     RTOS_config_pem4f.oem4f (.text:ti_sysbios_knl_Semaphore_Object__destruct__S)
                  00013940    00000020     RTOS_config_pem4f.oem4f (.text:ti_sysbios_knl_Swi_Object__delete__S)
                  00013960    00000020     RTOS_config_pem4f.oem4f (.text:ti_sysbios_knl_Task_Object__delete__S)
                  00013980    00000020     RTOS_config_pem4f.oem4f (.text:ti_uia_loggers_LoggerStopMode_Object__delete__S)
                  000139a0    00000020     ti.targets.arm.rtsarm.aem4f : Registry.oem4f (.text:xdc_runtime_Registry_findById__E)
                  000139c0    00000020                                 : SysMin.oem4f (.text:xdc_runtime_SysMin_Module_startup__E)
                  000139e0    0000001e     stk.aem4f : listlib.oem4f (.text:list_remove)
                  000139fe    0000001e     eth_network.obj (.text:recv)
                  00013a1c    0000001e     eth_network.obj (.text:send)
                  00013a3a    0000001e     RTOS_config_pem4f.oem4f (.text:ti_sysbios_BIOS_errorRaiseHook__I)
                  00013a58    0000001e     sysbios.aem4f : m3_Hwi_asm_switch.obj (.text:ti_sysbios_family_xxx_Hwi_switchAndRunFunc)
                  00013a76    00000002     --HOLE-- [fill = 0]
                  00013a78    0000001c     stk.aem4f : bind.oem4f (.text:BindFindByIF)
                  00013a94    0000001c               : exec.oem4f (.text:ExecBroadcast)
                  00013ab0    0000001c     os.aem4f : ossys.oem4f (.text:NDK_sprintf)
                  00013acc    0000001c     stk.aem4f : nimu.oem4f (.text:NIMUAddHeader)
                  00013ae8    0000001c               : sockprot.oem4f (.text:SockPrDetach)
                  00013b04    0000001c     os.aem4f : task.oem4f (.text:TaskDestroy)
                  00013b20    0000001c     driverlib.lib : sysctl.obj (.text:_SysCtlMemTimingGet)
                  00013b3c    0000001c     drivers_tivaware.aem4f : GPIOTiva.oem4f (.text:getGpioIntIndex)
                  00013b58    0000001c     RTOS_config_pem4f.oem4f (.text:ti_ndk_config_global_taskCreateHook)
                  00013b74    00000004     --HOLE-- [fill = 0]
                  00013b78    0000001c     sysbios.aem4f : BIOS.obj (.text:ti_sysbios_gates_GateMutex_Instance_init__E)
                  00013b94    0000001c     RTOS_config_pem4f.oem4f (.text:ti_sysbios_knl_Queue_Object__destruct__S)
                  00013bb0    0000001c     sysbios.aem4f : BIOS.obj (.text:ti_sysbios_knl_Task_enter__I)
                  00013bcc    0000001c     ti.uia.loggers.aem4f : LoggerStopMode.oem4f (.text:ti_uia_loggers_LoggerStopMode_Instance_init__E)
                  00013be8    0000001c     ti.targets.arm.rtsarm.aem4f : Error.oem4f (.text:xdc_runtime_Error_raiseX__E)
                  00013c04    0000001c                                 : Memory.oem4f (.text:xdc_runtime_Memory_valloc__E)
                  00013c20    0000001c                                 : SysMin.oem4f (.text:xdc_runtime_SysMin_exit__E)
                  00013c3c    0000001c                                 : System.oem4f (.text:xdc_runtime_System_abort__E)
                  00013c58    0000001a     stk.aem4f : bind.oem4f (.text:BindGetIP)
                  00013c72    0000001a               : sockint.oem4f (.text:SockSetOOBMark)
                  00013c8c    0000001a               : file.oem4f (.text:fdint_getfdt)
                  00013ca6    0000001a     RTOS_config_pem4f.oem4f (.text:ti_sysbios_family_arm_m3_Hwi_Handle__label__S)
                  00013cc0    0000001a     RTOS_config_pem4f.oem4f (.text:ti_sysbios_gates_GateHwi_Handle__label__S)
                  00013cda    0000001a     RTOS_config_pem4f.oem4f (.text:ti_sysbios_gates_GateMutex_Handle__label__S)
                  00013cf4    0000001a     RTOS_config_pem4f.oem4f (.text:ti_sysbios_heaps_HeapMem_Handle__label__S)
                  00013d0e    0000001a     RTOS_config_pem4f.oem4f (.text:ti_sysbios_knl_Swi_Handle__label__S)
                  00013d28    0000001a     RTOS_config_pem4f.oem4f (.text:ti_sysbios_knl_Task_Handle__label__S)
                  00013d42    00000006     driverlib.lib : emac.obj (.text:EMACTxDMADescriptorListSet)
                  00013d48    0000001a     sysbios.aem4f : BIOS.obj (.text:ti_sysbios_knl_Task_sleepTimeout__I)
                  00013d62    0000001a     RTOS_config_pem4f.oem4f (.text:ti_uia_loggers_LoggerStopMode_Handle__label__S)
                  00013d7c    0000001a     RTOS_config_pem4f.oem4f (.text:xdc_runtime_System_aprintf__E)
                  00013d96    0000001a     RTOS_config_pem4f.oem4f (.text:xdc_runtime_System_printf__E)
                  00013db0    00000018     driverlib.lib : adc.obj (.text:ADCClockConfigSet)
                  00013dc8    00000018     drivers_tivaware.aem4f : EMACSnow.oem4f (.text:EMACSnow_emacSend)
                  00013de0    00000018     stk.aem4f : ip.oem4f (.text:IPRtChange)
                  00013df8    00000018               : rawethsock_pcb.oem4f (.text:RawEthSockPcbCleanup)
                  00013e10    00000018     nettool_ipv4.aem4f : ipaddr.oem4f (.text:RouteHook)
                  00013e28    00000018     stk.aem4f : tcpin.oem4f (.text:SEQ_GEQ)
                  00013e40    00000018               : tcpout.oem4f (.text:SEQ_GEQ)
                  00013e58    00000018               : tcpin.oem4f (.text:SEQ_GT)
                  00013e70    00000018               : tcpout.oem4f (.text:SEQ_GT)
                  00013e88    00000018               : tcpin.oem4f (.text:SEQ_LEQ)
                  00013ea0    00000018               : tcpout.oem4f (.text:SEQ_LEQ)
                  00013eb8    00000018               : tcpin.oem4f (.text:SEQ_LT)
                  00013ed0    00000018               : tcpout.oem4f (.text:SEQ_LT)
                  00013ee8    00000018               : tcp.oem4f (.text:TcpTimeoutAdd)
                  00013f00    00000018     nettool_ipv4.aem4f : dhcpsock.oem4f (.text:dhcpSocketClose)
                  00013f18    00000018     stk.aem4f : listlib.oem4f (.text:list_add)
                  00013f30    00000018     rtsv7M4_T_le_v4SPD16_eabi.lib : args_main.obj (.text)
                  00013f48    00000018                                   : strcmp.obj (.text)
                  00013f60    00000018     RTOS_config_pem4f.oem4f (.text:ti_sysbios_BIOS_rtsUnlock__I)
                  00013f78    00000018     RTOS_config_pem4f.oem4f (.text:ti_sysbios_family_arm_lm4_Timer_Module__startupDone__F)
                  00013f90    00000018     RTOS_config_pem4f.oem4f (.text:ti_sysbios_family_arm_m3_Hwi_Module__startupDone__F)
                  00013fa8    00000018     sysbios.aem4f : m3_TaskSupport_asm.obj (.text:ti_sysbios_family_arm_m3_TaskSupport_swap__E)
                  00013fc0    00000018                   : BIOS.obj (.text:ti_sysbios_gates_GateMutex_leave__E)
                  00013fd8    00000018     driverlib.lib : udma.obj (.text:uDMAChannelEnable)
                  00013ff0    00000018     ti.targets.arm.rtsarm.aem4f : Error.oem4f (.text:xdc_runtime_Error_check__E)
                  00014008    00000018                                 : System.oem4f (.text:xdc_runtime_System_exit__E)
                  00014020    00000018                                 : Text.oem4f (.text:xdc_runtime_Text_ropeText__E)
                  00014038    00000016     driverlib.lib : emac.obj (.text:EMACReset)
                  0001404e    00000016                   : emac.obj (.text:EMACRxEnable)
                  00014064    00000016                   : emac.obj (.text:EMACTxEnable)
                  0001407a    00000016     stk.aem4f : file.oem4f (.text:fdint_freefdt)
                  00014090    00000016     RTOS_config_pem4f.oem4f (.text:ti_sysbios_BIOS_exitFunc__I)
                  000140a6    00000016     eth_network.obj (.text:ti_sysbios_knl_Task_Params_init)
                  000140bc    00000016     ti.uia.loggers.aem4f : LoggerStopMode.oem4f (.text:ti_uia_loggers_LoggerStopMode_disable__E)
                  000140d2    00000016                          : LoggerStopMode.oem4f (.text:ti_uia_loggers_LoggerStopMode_enable__E)
                  000140e8    00000016     ti.targets.arm.rtsarm.aem4f : System.oem4f (.text:xdc_runtime_System_vsprintf__E)
                  000140fe    00000014     stk.aem4f : bind.oem4f (.text:BindIPHost2IF)
                  00014112    00000002     --HOLE-- [fill = 0]
                  00014114    00000014     driverlib.lib : flash.obj (.text:FlashUserGet)
                  00014128    00000014     netctrl_min_ipv4.aem4f : netctrl.oem4f (.text:NC_NetStop)
                  0001413c    00000014     os.aem4f : task.oem4f (.text:NDK_hookExit)
                  00014150    00000014     stk.aem4f : nimu.oem4f (.text:NIMUSendPacket)
                  00014164    00000014     nettool_ipv4.aem4f : ipaddr.oem4f (.text:NtRemoveNetwork)
                  00014178    00000014     stk.aem4f : rawethsock_pcb.oem4f (.text:RawEthSockPcbInit)
                  0001418c    00000014               : timer.oem4f (.text:TimerFree)
                  000141a0    00000014     eth_network.obj (.text:accept)
                  000141b4    00000014     eth_network.obj (.text:bind)
                  000141c8    00000014     main.obj (.text:initSamplesTask)
                  000141dc    00000014     rtsv7M4_T_le_v4SPD16_eabi.lib : _lock.obj (.text)
                  000141f0    00000014                                   : strcpy.obj (.text)
                  00014204    00000014                                   : strlen.obj (.text)
                  00014218    00000014     eth_network.obj (.text:socket)
                  0001422c    00000014     RTOS_config_pem4f.oem4f (.text:ti_ndk_config_global_taskExitHook)
                  00014240    00000014     RTOS_config_pem4f.oem4f (.text:ti_sysbios_family_arm_m3_Hwi_Object__get__S)
                  00014254    00000004     --HOLE-- [fill = 0]
                  00014258    00000014     sysbios.aem4f : BIOS.obj (.text:ti_sysbios_family_arm_m3_Hwi_switchFromBootStack__E)
                  0001426c    00000014     RTOS_config_pem4f.oem4f (.text:ti_sysbios_heaps_HeapMem_Object__get__S)
                  00014280    00000014     RTOS_config_pem4f.oem4f (.text:ti_sysbios_knl_Swi_Object__get__S)
                  00014294    00000014     RTOS_config_pem4f.oem4f (.text:ti_sysbios_knl_Task_Object__first__S)
                  000142a8    00000014     RTOS_config_pem4f.oem4f (.text:ti_sysbios_knl_Task_Object__get__S)
                  000142bc    00000014     RTOS_config_pem4f.oem4f (.text:ti_sysbios_knl_Task_Object__next__S)
                  000142d0    00000012     driverlib.lib : adc.obj (.text:ADCHardwareOversampleConfigure)
                  000142e2    00000012                   : gpio.obj (.text:GPIOPinTypeADC)
                  000142f4    00000012                   : gpio.obj (.text:GPIOPinTypeEthernetLED)
                  00014306    00000012     stk.aem4f : sockprot.oem4f (.text:SockPrAttach)
                  00014318    00000012               : sockint.oem4f (.text:SockSetOOBData)
                  0001432a    00000012     driverlib.lib : timer.obj (.text:TimerLoadSet)
                  0001433c    00000012     main.obj (.text:heartBeat_Task)
                  0001434e    00000012     nettool_ipv4.aem4f : inetaddr.oem4f (.text:inet_addr)
                  00014360    00000012     sysbios.aem4f : BIOS.obj (.text:ti_sysbios_hal_Hwi_Module_startup__E)
                  00014372    00000006     driverlib.lib : gpio.obj (.text:GPIOIntClear)
                  00014378    00000012     sysbios.aem4f : BIOS.obj (.text:ti_sysbios_knl_Semaphore_reset__E)
                  0001438a    00000012     RTOS_config_pem4f.oem4f (.text:xdc_runtime_Startup_exec__I)
                  0001439c    00000010     RTOS_config_pem4f.oem4f (.text:.bootCodeSection:ti_catalog_arm_cortexm4_tiva_ce_Boot_init__I)
                  000143ac    00000010     driverlib.lib : adc.obj (.text:ADCSequenceDMAEnable)
                  000143bc    00000010     stk.aem4f : bind.oem4f (.text:BindIF2IPHost)
                  000143cc    00000010               : bind.oem4f (.text:BindIFNet2IPHost)
                  000143dc    00000010     driverlib.lib : emac.obj (.text:EMACFrameFilterSet)
                  000143ec    00000010     stk.aem4f : exec.oem4f (.text:ExecHRef)
                  000143fc    00000010     netctrl_min_ipv4.aem4f : netctrl.oem4f (.text:NC_IPUpdate)
                  0001440c    00000010     stk.aem4f : nimu.oem4f (.text:NIMUGetRsvdSizeInfo)
                  0001441c    00000010     eth_network.obj (.text:listen)
                  0001442c    00000004     --HOLE-- [fill = 0]
                  00014430    00000010     sysbios.aem4f : BIOS.obj (.text:ti_sysbios_BIOS_getCpuFreq__E)
                  00014440    00000010                   : BIOS.obj (.text:ti_sysbios_BIOS_setThreadType__E)
                  00014450    00000010                   : BIOS.obj (.text:ti_sysbios_BIOS_start__E)
                  00014460    00000010                   : BIOS.obj (.text:ti_sysbios_family_arm_lm4_TimestampProvider_rolloverFunc__E)
                  00014470    00000010                   : m3_TaskSupport_asm.obj (.text:ti_sysbios_family_arm_m3_TaskSupport_glue)
                  00014480    00000010                   : BIOS.obj (.text:ti_sysbios_gates_GateMutex_Instance_finalize__E)
                  00014490    00000010                   : BIOS.obj (.text:ti_sysbios_knl_Semaphore_Instance_finalize__E)
                  000144a0    00000010                   : BIOS.obj (.text:ti_sysbios_knl_Swi_disable__E)
                  000144b0    00000010                   : BIOS.obj (.text:ti_sysbios_knl_Task_disable__E)
                  000144c0    00000010     RTOS_config_pem4f.oem4f (.text:ti_uia_loggers_LoggerStopMode_Object__get__S)
                  000144d0    00000010     ti.uia.loggers.aem4f : LoggerStopMode.oem4f (.text:ti_uia_loggers_LoggerStopMode_isEmpty__E)
                  000144e0    00000010     driverlib.lib : udma.obj (.text:uDMADisable)
                  000144f0    00000010                   : udma.obj (.text:uDMAEnable)
                  00014500    00000010     ti.targets.arm.rtsarm.aem4f : Gate.oem4f (.text:xdc_runtime_Gate_leaveSystem__E)
                  00014510    00000010                                 : Memory.oem4f (.text:xdc_runtime_Memory_free__E)
                  00014520    00000010                                 : SysMin.oem4f (.text:xdc_runtime_SysMin_ready__E)
                  00014530    00000010                                 : System.oem4f (.text:xdc_runtime_System_vsnprintf__E)
                  00014540    00000010     RTOS_config_pem4f.oem4f (.text:xdc_runtime_Text_visitRope__I)
                  00014550    0000000e     driverlib.lib : adc.obj (.text:ADCSequenceDisable)
                  0001455e    0000000e                   : adc.obj (.text:ADCSequenceEnable)
                  0001456c    0000000e     drivers_tivaware.aem4f : EMACSnow.oem4f (.text:EMACSnow_emacioctl)
                  0001457a    0000000e     stk.aem4f : exec.oem4f (.text:ExecLowResource)
                  00014588    0000000e     driverlib.lib : gpio.obj (.text:GPIOIntStatus)
                  00014596    0000000e                   : timer.obj (.text:TimerEnable)
                  000145a4    0000000e     rtsv7M4_T_le_v4SPD16_eabi.lib : copy_decompress_none.obj (.text:decompress:none)
                  000145b2    00000006     driverlib.lib : gpio.obj (.text:GPIOPinRead)
                  000145b8    0000000e     sysbios.aem4f : BIOS.obj (.text:ti_sysbios_knl_Idle_loop__E)
                  000145c6    00000002     --HOLE-- [fill = 0]
                  000145c8    0000000e                   : BIOS.obj (.text:ti_sysbios_knl_Queue_empty__E)
                  000145d6    0000000c     driverlib.lib : adc.obj (.text:ADCReferenceSet)
                  000145e2    00000002     --HOLE-- [fill = 0]
                  000145e4    0000000c     stk.aem4f : bind.oem4f (.text:BindGetFirst)
                  000145f0    0000000c     nettool_ipv4.aem4f : config.oem4f (.text:CfgSetDefault)
                  000145fc    0000000c     drivers_tivaware.aem4f : EMACSnow.oem4f (.text:EMACSnow_init)
                  00014608    0000000c     os.aem4f : task.oem4f (.text:NDK_hookInit)
                  00014614    0000000c     stk.aem4f : nimu.oem4f (.text:NIMUSetRsvdSizeInfo)
                  00014620    0000000c     os.aem4f : task.oem4f (.text:NotifyLowResource)
                  0001462c    0000000c     stk.aem4f : pbm.oem4f (.text:PBM_close)
                  00014638    0000000c     os.aem4f : semaphore.oem4f (.text:SemDelete)
                  00014644    0000000c     hal_timer_bios.aem4f : lltimer.oem4f (.text:_llTimerShutdown)
                  00014650    0000000c     eth_network.obj (.text:close)
                  0001465c    0000000c     rtsv7M4_T_le_v4SPD16_eabi.lib : copy_zero_init.obj (.text:decompress:ZI)
                  00014668    0000000c     hal_timer_bios.aem4f : lltimer.oem4f (.text:llTimerGetStartTime)
                  00014674    00000004     --HOLE-- [fill = 0]
                  00014678    0000000c     sysbios.aem4f : BIOS.obj (.text:ti_sysbios_BIOS_getThreadType__E)
                  00014684    00000004     --HOLE-- [fill = 0]
                  00014688    0000000c                   : BIOS.obj (.text:ti_sysbios_family_arm_lm4_Timer_getMaxTicks__E)
                  00014694    00000004     --HOLE-- [fill = 0]
                  00014698    0000000c                   : BIOS.obj (.text:ti_sysbios_family_arm_lm4_TimestampProvider_startTimer__E)
                  000146a4    0000000c     RTOS_config_pem4f.oem4f (.text:ti_sysbios_family_arm_m3_Hwi_Params__init__S)
                  000146b0    0000000c     sysbios.aem4f : BIOS.obj (.text:ti_sysbios_family_arm_m3_Hwi_disableFxn__E)
                  000146bc    00000004     --HOLE-- [fill = 0]
                  000146c0    0000000c                   : BIOS.obj (.text:ti_sysbios_family_arm_m3_TaskSupport_checkStack__E)
                  000146cc    00000004     --HOLE-- [fill = 0]
                  000146d0    0000000c                   : BIOS.obj (.text:ti_sysbios_family_arm_m3_TaskSupport_getStackAlignment__E)
                  000146dc    00000004     --HOLE-- [fill = 0]
                  000146e0    0000000c                   : BIOS.obj (.text:ti_sysbios_gates_GateHwi_enter__E)
                  000146ec    0000000c     RTOS_config_pem4f.oem4f (.text:ti_sysbios_knl_Clock_Params__init__S)
                  000146f8    0000000c     sysbios.aem4f : BIOS.obj (.text:ti_sysbios_knl_Clock_getTicks__E)
                  00014704    0000000c     RTOS_config_pem4f.oem4f (.text:ti_sysbios_knl_Queue_Object__get__S)
                  00014710    0000000c     RTOS_config_pem4f.oem4f (.text:ti_sysbios_knl_Semaphore_Params__init__S)
                  0001471c    0000000c     RTOS_config_pem4f.oem4f (.text:ti_sysbios_knl_Task_Params__init__S)
                  00014728    0000000c     sysbios.aem4f : BIOS.obj (.text:ti_sysbios_knl_Task_getIdleTask__E)
                  00014734    00000004     --HOLE-- [fill = 0]
                  00014738    0000000c                   : BIOS.obj (.text:ti_sysbios_knl_Task_self__E)
                  00014744    00000004     --HOLE-- [fill = 0]
                  00014748    0000000c                   : BIOS.obj (.text:ti_sysbios_utils_Load_taskRegHook__E)
                  00014754    0000000c     driverlib.lib : udma.obj (.text:uDMAControlBaseSet)
                  00014760    0000000c     ti.targets.arm.rtsarm.aem4f : Error.oem4f (.text:xdc_runtime_Error_init__E)
                  0001476c    0000000c                                 : Gate.oem4f (.text:xdc_runtime_Gate_enterSystem__E)
                  00014778    0000000c                                 : Memory.oem4f (.text:xdc_runtime_Memory_calloc__E)
                  00014784    0000000c                                 : Memory.oem4f (.text:xdc_runtime_Memory_getMaxDefaultTypeAlign__E)
                  00014790    0000000a     stk.aem4f : file.oem4f (.text:fdint_signalevent)
                  0001479a    0000000a               : file.oem4f (.text:fdint_signaltimeout)
                  000147a4    0000000a     RTOS_config_pem4f.oem4f (.text:xdc_runtime_IHeap_alloc)
                  000147ae    0000000a     RTOS_config_pem4f.oem4f (.text:xdc_runtime_IHeap_free)
                  000147b8    00000008     driverlib.lib : adc.obj (.text:ADCIntEnableEx)
                  000147c0    00000008     EK_TM4C1294XL.obj (.text:EK_TM4C1294XL_initGPIO)
                  000147c8    00000008     driverlib.lib : emac.obj (.text:EMACTxDMAPollDemand)
                  000147d0    00000008     stk.aem4f : node.oem4f (.text:NodeFree)
                  000147d8    00000008     os.aem4f : task.oem4f (.text:TaskBlock)
                  000147e0    00000008     sysbios.aem4f : BIOS.obj (.text:ti_sysbios_family_arm_lm4_Timer_masterDisable__I)
                  000147e8    00000008                   : BIOS.obj (.text:ti_sysbios_family_arm_m3_Hwi_doSwiRestore__I)
                  000147f0    00000008                   : BIOS.obj (.text:ti_sysbios_family_arm_m3_Hwi_startup__E)
                  000147f8    00000008                   : BIOS.obj (.text:ti_sysbios_knl_Task_getHookContext__E)
                  00014800    00000008                   : BIOS.obj (.text:ti_sysbios_knl_Task_setHookContext__E)
                  00014808    00000006     driverlib.lib : gpio.obj (.text:GPIOPinWrite)
                  0001480e    00000006                   : sysctl.obj (.text:SysCtlDelay)
                  00014814    00000006     stk.aem4f : tcpprot.oem4f (.text:TcpPrRecv)
                  0001481a    00000006     ti.targets.arm.rtsarm.aem4f : xdc_noinit.oem4f (.text:__xdc__init)
                  00014820    00000006     sysbios.aem4f : BIOS.obj (.text:ti_sysbios_family_arm_lm4_TimestampProvider_Module_startup__E)
                  00014826    00000002     --HOLE-- [fill = 0]
                  00014828    00000006                   : BIOS.obj (.text:ti_sysbios_family_arm_m3_Hwi_restoreFxn__E)
                  0001482e    00000002     --HOLE-- [fill = 0]
                  00014830    00000006                   : BIOS.obj (.text:ti_sysbios_gates_GateHwi_leave__E)
                  00014836    00000002     --HOLE-- [fill = 0]
                  00014838    00000006                   : BIOS.obj (.text:ti_sysbios_heaps_HeapMem_isBlocking__E)
                  0001483e    00000002     --HOLE-- [fill = 0]
                  00014840    00000006                   : BIOS.obj (.text:ti_sysbios_knl_Queue_Instance_init__E)
                  00014846    00000006     ti.targets.arm.rtsarm.aem4f : System.oem4f (.text:xdc_runtime_System_Module_startup__E)
                  0001484c    00000004     --HOLE-- [fill = 0]
                  00014850    00000004     sysbios.aem4f : BIOS.obj (.text:ti_sysbios_family_arm_lm4_Timer_getPeriod__E)
                  00014854    00000004     --HOLE-- [fill = 0]
                  00014858    00000004                   : BIOS.obj (.text:ti_sysbios_gates_GateHwi_query__E)
                  0001485c    00000004     --HOLE-- [fill = 0]
                  00014860    00000004                   : BIOS.obj (.text:ti_sysbios_gates_GateMutex_query__E)
                  00014864    00000004     --HOLE-- [fill = 0]
                  00014868    00000004                   : BIOS.obj (.text:ti_sysbios_knl_Task_startup__E)
                  0001486c    00000004     --HOLE-- [fill = 0]
                  00014870    00000002                   : BIOS.obj (.text:ti_sysbios_gates_GateHwi_Instance_init__E)

.const     0    00014874    00002fec     
                  00014874    00002075     RTOS_config_pem4f.oem4f (.const:xdc_runtime_Text_charTab__A)
                  000168e9    00000001     RTOS_config_pem4f.oem4f (.const:xdc_runtime_Error_policy__C)
                  000168ea    00000002     RTOS_config_pem4f.oem4f (.const:ti_catalog_arm_cortexm4_tiva_ce_Boot_Module__id__C)
                  000168ec    00000120     Boot.aem4f : Boot_sysctl.oem4f (.const:g_pppui32XTALtoVCO)
                  00016a0c    00000120     driverlib.lib : sysctl.obj (.const:g_pppui32XTALtoVCO)
                  00016b2c    00000114     RTOS_config_pem4f.oem4f (.const:xdc_runtime_Text_nodeTab__A)
                  00016c40    00000100     RTOS_config_pem4f.oem4f (.const:.string)
                  00016d40    00000090     driverlib.lib : gpio.obj (.const:g_pui32GPIOBaseAddrs)
                  00016dd0    00000070                   : interrupt.obj (.const)
                  00016e40    0000006c     Boot.aem4f : Boot_sysctl.oem4f (.const:g_pui32Xtals)
                  00016eac    0000006c     driverlib.lib : sysctl.obj (.const:g_pui32Xtals)
                  00016f18    00000060     RTOS_config_pem4f.oem4f (.const:ti_uia_loggers_LoggerStopMode_Module__FXNS__C)
                  00016f78    00000054     drivers_tivaware.aem4f : GPIOTiva.oem4f (.const:.string)
                  00016fcc    00000054     stk.aem4f : sockprot.oem4f (.const:Code2Err)
                  00017020    00000048     drivers_tivaware.aem4f : GPIOTiva.oem4f (.const:gpioBaseAddresses)
                  00017068    0000003e     stk.aem4f : rtc.oem4f (.const:.string)
                  000170a6    00000002     RTOS_config_pem4f.oem4f (.const:ti_sysbios_family_arm_lm4_TimestampProvider_useClockTimer__C)
                  000170a8    0000003c     RTOS_config_pem4f.oem4f (.const)
                  000170e4    0000003c     RTOS_config_pem4f.oem4f (.const:ti_sysbios_knl_Task_Object__PARAMS__C)
                  00017120    00000030     Boot.aem4f : Boot_sysctl.oem4f (.const:g_sXTALtoMEMTIM)
                  00017150    00000030     driverlib.lib : sysctl.obj (.const:g_sXTALtoMEMTIM)
                  00017180    00000030     RTOS_config_pem4f.oem4f (.const:ti_sysbios_family_arm_m3_Hwi_Object__PARAMS__C)
                  000171b0    00000030     RTOS_config_pem4f.oem4f (.const:ti_sysbios_knl_Task_hooks__A)
                  000171e0    00000028     RTOS_config_pem4f.oem4f (.const:ti_sysbios_heaps_HeapMem_Module__FXNS__C)
                  00017208    00000028     RTOS_config_pem4f.oem4f (.const:ti_sysbios_knl_Swi_Object__PARAMS__C)
                  00017230    00000028     RTOS_config_pem4f.oem4f (.const:ti_uia_loggers_LoggerStopMode_Object__PARAMS__C)
                  00017258    00000028     RTOS_config_pem4f.oem4f (.const:xdc_runtime_Startup_sfxnTab__A)
                  00017280    00000024     RTOS_config_pem4f.oem4f (.const:ti_sysbios_gates_GateHwi_Module__FXNS__C)
                  000172a4    00000024     RTOS_config_pem4f.oem4f (.const:ti_sysbios_gates_GateMutex_Module__FXNS__C)
                  000172c8    00000024     RTOS_config_pem4f.oem4f (.const:ti_sysbios_heaps_HeapMem_Object__PARAMS__C)
                  000172ec    00000024     RTOS_config_pem4f.oem4f (.const:ti_sysbios_knl_Clock_Object__PARAMS__C)
                  00017310    00000024     RTOS_config_pem4f.oem4f (.const:ti_sysbios_knl_Semaphore_Object__PARAMS__C)
                  00017334    00000020     RTOS_config_pem4f.oem4f (.const:ti_sysbios_family_arm_m3_Hwi_Object__DESC__C)
                  00017354    00000020     RTOS_config_pem4f.oem4f (.const:ti_sysbios_gates_GateHwi_Object__DESC__C)
                  00017374    00000020     RTOS_config_pem4f.oem4f (.const:ti_sysbios_gates_GateMutex_Object__DESC__C)
                  00017394    00000020     RTOS_config_pem4f.oem4f (.const:ti_sysbios_heaps_HeapMem_Object__DESC__C)
                  000173b4    00000020     RTOS_config_pem4f.oem4f (.const:ti_sysbios_knl_Clock_Object__DESC__C)
                  000173d4    00000020     RTOS_config_pem4f.oem4f (.const:ti_sysbios_knl_Queue_Object__DESC__C)
                  000173f4    00000020     RTOS_config_pem4f.oem4f (.const:ti_sysbios_knl_Semaphore_Object__DESC__C)
                  00017414    00000020     RTOS_config_pem4f.oem4f (.const:ti_sysbios_knl_Swi_Object__DESC__C)
                  00017434    00000020     RTOS_config_pem4f.oem4f (.const:ti_sysbios_knl_Task_Object__DESC__C)
                  00017454    00000020     RTOS_config_pem4f.oem4f (.const:ti_uia_loggers_LoggerStopMode_Object__DESC__C)
                  00017474    00000018     EK_TM4C1294XL.obj (.const:EMAC_config)
                  0001748c    00000018     driverlib.lib : emac.obj (.const)
                  000174a4    00000018     RTOS_config_pem4f.oem4f (.const:ti_sysbios_gates_GateHwi_Object__PARAMS__C)
                  000174bc    00000018     RTOS_config_pem4f.oem4f (.const:ti_sysbios_gates_GateMutex_Object__PARAMS__C)
                  000174d4    00000018     RTOS_config_pem4f.oem4f (.const:ti_sysbios_knl_Queue_Object__PARAMS__C)
                  000174ec    00000014     EK_TM4C1294XL.obj (.const:GPIOTiva_config)
                  00017500    00000014     RTOS_config_pem4f.oem4f (.const:xdc_runtime_Startup_firstFxns__A)
                  00017514    00000014     RTOS_config_pem4f.oem4f (.const:xdc_runtime_Startup_sfxnRts__A)
                  00017528    00000010     EK_TM4C1294XL.obj (.const:emacHWAttrs)
                  00017538    0000000c     RTOS_config_pem4f.oem4f (.const:ti_sysbios_knl_Idle_funcList__A)
                  00017544    00000008     Boot.aem4f : Boot_sysctl.oem4f (.const)
                  0001754c    00000008     driverlib.lib : sysctl.obj (.const)
                  00017554    00000008     drivers_tivaware.aem4f : EMACSnow.oem4f (.const)
                  0001755c    00000008     RTOS_config_pem4f.oem4f (.const:ti_sysbios_family_arm_m3_Hwi_excHookFuncs__A)
                  00017564    00000008     RTOS_config_pem4f.oem4f (.const:ti_sysbios_knl_Idle_funcList__C)
                  0001756c    00000008     RTOS_config_pem4f.oem4f (.const:ti_sysbios_knl_Task_hooks__C)
                  00017574    00000008     RTOS_config_pem4f.oem4f (.const:xdc_runtime_Startup_firstFxns__C)
                  0001757c    00000008     RTOS_config_pem4f.oem4f (.const:xdc_runtime_Startup_lastFxns__C)
                  00017584    00000004     RTOS_config_pem4f.oem4f (.const:ti_catalog_arm_cortexm4_tiva_ce_Boot_A_mustNotUseEnhancedClockMode__C)
                  00017588    00000004     RTOS_config_pem4f.oem4f (.const:ti_catalog_arm_cortexm4_tiva_ce_Boot_Module__diagsEnabled__C)
                  0001758c    00000004     RTOS_config_pem4f.oem4f (.const:ti_catalog_arm_cortexm4_tiva_ce_Boot_Module__diagsIncluded__C)
                  00017590    00000004     RTOS_config_pem4f.oem4f (.const:ti_catalog_arm_cortexm4_tiva_ce_Boot_Module__diagsMask__C)
                  00017594    00000004     RTOS_config_pem4f.oem4f (.const:ti_sysbios_family_arm_lm4_Timer_enableFunc__C)
                  00017598    00000004     RTOS_config_pem4f.oem4f (.const:ti_sysbios_family_arm_lm4_Timer_numTimerDevices__C)
                  0001759c    00000004     RTOS_config_pem4f.oem4f (.const:ti_sysbios_family_arm_lm4_Timer_startupNeeded__C)
                  000175a0    00000004     RTOS_config_pem4f.oem4f (.const:ti_sysbios_family_arm_m3_Hwi_E_NMI__C)
                  000175a4    00000004     RTOS_config_pem4f.oem4f (.const:ti_sysbios_family_arm_m3_Hwi_E_alreadyDefined__C)
                  000175a8    00000004     RTOS_config_pem4f.oem4f (.const:ti_sysbios_family_arm_m3_Hwi_E_busFault__C)
                  000175ac    00000004     RTOS_config_pem4f.oem4f (.const:ti_sysbios_family_arm_m3_Hwi_E_debugMon__C)
                  000175b0    00000004     RTOS_config_pem4f.oem4f (.const:ti_sysbios_family_arm_m3_Hwi_E_hardFault__C)
                  000175b4    00000004     RTOS_config_pem4f.oem4f (.const:ti_sysbios_family_arm_m3_Hwi_E_memFault__C)
                  000175b8    00000004     RTOS_config_pem4f.oem4f (.const:ti_sysbios_family_arm_m3_Hwi_E_noIsr__C)
                  000175bc    00000004     RTOS_config_pem4f.oem4f (.const:ti_sysbios_family_arm_m3_Hwi_E_reserved__C)
                  000175c0    00000004     RTOS_config_pem4f.oem4f (.const:ti_sysbios_family_arm_m3_Hwi_E_svCall__C)
                  000175c4    00000004     RTOS_config_pem4f.oem4f (.const:ti_sysbios_family_arm_m3_Hwi_E_usageFault__C)
                  000175c8    00000004     RTOS_config_pem4f.oem4f (.const:ti_sysbios_family_arm_m3_Hwi_LD_end__C)
                  000175cc    00000004     RTOS_config_pem4f.oem4f (.const:ti_sysbios_family_arm_m3_Hwi_LM_begin__C)
                  000175d0    00000004     RTOS_config_pem4f.oem4f (.const:ti_sysbios_family_arm_m3_Hwi_Module__diagsEnabled__C)
                  000175d4    00000004     RTOS_config_pem4f.oem4f (.const:ti_sysbios_family_arm_m3_Hwi_Module__diagsIncluded__C)
                  000175d8    00000004     RTOS_config_pem4f.oem4f (.const:ti_sysbios_family_arm_m3_Hwi_Module__diagsMask__C)
                  000175dc    00000004     RTOS_config_pem4f.oem4f (.const:ti_sysbios_family_arm_m3_Hwi_Module__loggerFxn1__C)
                  000175e0    00000004     RTOS_config_pem4f.oem4f (.const:ti_sysbios_family_arm_m3_Hwi_Module__loggerFxn8__C)
                  000175e4    00000004     RTOS_config_pem4f.oem4f (.const:ti_sysbios_family_arm_m3_Hwi_Module__loggerObj__C)
                  000175e8    00000004     RTOS_config_pem4f.oem4f (.const:ti_sysbios_family_arm_m3_Hwi_NUM_INTERRUPTS__C)
                  000175ec    00000004     RTOS_config_pem4f.oem4f (.const:ti_sysbios_family_arm_m3_Hwi_Object__count__C)
                  000175f0    00000004     RTOS_config_pem4f.oem4f (.const:ti_sysbios_family_arm_m3_Hwi_ccr__C)
                  000175f4    00000004     RTOS_config_pem4f.oem4f (.const:ti_sysbios_family_arm_m3_Hwi_excHandlerFunc__C)
                  000175f8    00000004     RTOS_config_pem4f.oem4f (.const:ti_sysbios_family_arm_m3_Hwi_excHookFuncs__C)
                  000175fc    00000004     RTOS_config_pem4f.oem4f (.const:ti_sysbios_family_arm_m3_Hwi_nullIsrFunc__C)
                  00017600    00000004     RTOS_config_pem4f.oem4f (.const:ti_sysbios_family_arm_m3_Hwi_priGroup__C)
                  00017604    00000004     RTOS_config_pem4f.oem4f (.const:ti_sysbios_family_arm_m3_TaskSupport_stackAlignment__C)
                  00017608    00000004     RTOS_config_pem4f.oem4f (.const:ti_sysbios_gates_GateMutex_A_badContext__C)
                  0001760c    00000004     RTOS_config_pem4f.oem4f (.const:ti_sysbios_gates_GateMutex_Instance_State_sem__O)
                  00017610    00000004     RTOS_config_pem4f.oem4f (.const:ti_sysbios_gates_GateMutex_Module__diagsEnabled__C)
                  00017614    00000004     RTOS_config_pem4f.oem4f (.const:ti_sysbios_gates_GateMutex_Module__diagsIncluded__C)
                  00017618    00000004     RTOS_config_pem4f.oem4f (.const:ti_sysbios_gates_GateMutex_Module__diagsMask__C)
                  0001761c    00000004     RTOS_config_pem4f.oem4f (.const:ti_sysbios_hal_Hwi_E_stackOverflow__C)
                  00017620    00000004     RTOS_config_pem4f.oem4f (.const:ti_sysbios_heaps_HeapMem_A_align__C)
                  00017624    00000004     RTOS_config_pem4f.oem4f (.const:ti_sysbios_heaps_HeapMem_A_heapSize__C)
                  00017628    00000004     RTOS_config_pem4f.oem4f (.const:ti_sysbios_heaps_HeapMem_A_invalidFree__C)
                  0001762c    00000004     RTOS_config_pem4f.oem4f (.const:ti_sysbios_heaps_HeapMem_A_zeroBlock__C)
                  00017630    00000004     RTOS_config_pem4f.oem4f (.const:ti_sysbios_heaps_HeapMem_E_memory__C)
                  00017634    00000004     RTOS_config_pem4f.oem4f (.const:ti_sysbios_heaps_HeapMem_Module__diagsEnabled__C)
                  00017638    00000004     RTOS_config_pem4f.oem4f (.const:ti_sysbios_heaps_HeapMem_Module__diagsIncluded__C)
                  0001763c    00000004     RTOS_config_pem4f.oem4f (.const:ti_sysbios_heaps_HeapMem_Module__diagsMask__C)
                  00017640    00000004     RTOS_config_pem4f.oem4f (.const:ti_sysbios_heaps_HeapMem_Module__gateObj__C)
                  00017644    00000004     RTOS_config_pem4f.oem4f (.const:ti_sysbios_heaps_HeapMem_Object__count__C)
                  00017648    00000004     RTOS_config_pem4f.oem4f (.const:ti_sysbios_heaps_HeapMem_reqAlign__C)
                  0001764c    00000004     RTOS_config_pem4f.oem4f (.const:ti_sysbios_knl_Clock_A_badThreadType__C)
                  00017650    00000004     RTOS_config_pem4f.oem4f (.const:ti_sysbios_knl_Clock_LM_begin__C)
                  00017654    00000004     RTOS_config_pem4f.oem4f (.const:ti_sysbios_knl_Clock_LM_tick__C)
                  00017658    00000004     RTOS_config_pem4f.oem4f (.const:ti_sysbios_knl_Clock_LW_delayed__C)
                  0001765c    00000004     RTOS_config_pem4f.oem4f (.const:ti_sysbios_knl_Clock_Module_State_clockQ__O)
                  00017660    00000004     RTOS_config_pem4f.oem4f (.const:ti_sysbios_knl_Clock_Module__diagsEnabled__C)
                  00017664    00000004     RTOS_config_pem4f.oem4f (.const:ti_sysbios_knl_Clock_Module__diagsIncluded__C)
                  00017668    00000004     RTOS_config_pem4f.oem4f (.const:ti_sysbios_knl_Clock_Module__diagsMask__C)
                  0001766c    00000004     RTOS_config_pem4f.oem4f (.const:ti_sysbios_knl_Clock_Module__loggerFxn1__C)
                  00017670    00000004     RTOS_config_pem4f.oem4f (.const:ti_sysbios_knl_Clock_Module__loggerFxn2__C)
                  00017674    00000004     RTOS_config_pem4f.oem4f (.const:ti_sysbios_knl_Clock_Module__loggerObj__C)
                  00017678    00000004     RTOS_config_pem4f.oem4f (.const:ti_sysbios_knl_Semaphore_A_badContext__C)
                  0001767c    00000004     RTOS_config_pem4f.oem4f (.const:ti_sysbios_knl_Semaphore_A_noEvents__C)
                  00017680    00000004     RTOS_config_pem4f.oem4f (.const:ti_sysbios_knl_Semaphore_A_overflow__C)
                  00017684    00000004     RTOS_config_pem4f.oem4f (.const:ti_sysbios_knl_Semaphore_A_pendTaskDisabled__C)
                  00017688    00000004     RTOS_config_pem4f.oem4f (.const:ti_sysbios_knl_Semaphore_Instance_State_pendQ__O)
                  0001768c    00000004     RTOS_config_pem4f.oem4f (.const:ti_sysbios_knl_Semaphore_LM_pend__C)
                  00017690    00000004     RTOS_config_pem4f.oem4f (.const:ti_sysbios_knl_Semaphore_LM_post__C)
                  00017694    00000004     RTOS_config_pem4f.oem4f (.const:ti_sysbios_knl_Semaphore_Module__diagsEnabled__C)
                  00017698    00000004     RTOS_config_pem4f.oem4f (.const:ti_sysbios_knl_Semaphore_Module__diagsIncluded__C)
                  0001769c    00000004     RTOS_config_pem4f.oem4f (.const:ti_sysbios_knl_Semaphore_Module__diagsMask__C)
                  000176a0    00000004     RTOS_config_pem4f.oem4f (.const:ti_sysbios_knl_Semaphore_Module__loggerFxn2__C)
                  000176a4    00000004     RTOS_config_pem4f.oem4f (.const:ti_sysbios_knl_Semaphore_Module__loggerFxn4__C)
                  000176a8    00000004     RTOS_config_pem4f.oem4f (.const:ti_sysbios_knl_Semaphore_Module__loggerObj__C)
                  000176ac    00000004     RTOS_config_pem4f.oem4f (.const:ti_sysbios_knl_Swi_A_badPriority__C)
                  000176b0    00000004     RTOS_config_pem4f.oem4f (.const:ti_sysbios_knl_Swi_LD_end__C)
                  000176b4    00000004     RTOS_config_pem4f.oem4f (.const:ti_sysbios_knl_Swi_LM_begin__C)
                  000176b8    00000004     RTOS_config_pem4f.oem4f (.const:ti_sysbios_knl_Swi_LM_post__C)
                  000176bc    00000004     RTOS_config_pem4f.oem4f (.const:ti_sysbios_knl_Swi_Module__diagsEnabled__C)
                  000176c0    00000004     RTOS_config_pem4f.oem4f (.const:ti_sysbios_knl_Swi_Module__diagsIncluded__C)
                  000176c4    00000004     RTOS_config_pem4f.oem4f (.const:ti_sysbios_knl_Swi_Module__diagsMask__C)
                  000176c8    00000004     RTOS_config_pem4f.oem4f (.const:ti_sysbios_knl_Swi_Module__loggerFxn1__C)
                  000176cc    00000004     RTOS_config_pem4f.oem4f (.const:ti_sysbios_knl_Swi_Module__loggerFxn4__C)
                  000176d0    00000004     RTOS_config_pem4f.oem4f (.const:ti_sysbios_knl_Swi_Module__loggerObj__C)
                  000176d4    00000004     RTOS_config_pem4f.oem4f (.const:ti_sysbios_knl_Swi_Object__count__C)
                  000176d8    00000004     RTOS_config_pem4f.oem4f (.const:ti_sysbios_knl_Task_A_badPriority__C)
                  000176dc    00000004     RTOS_config_pem4f.oem4f (.const:ti_sysbios_knl_Task_A_badTaskState__C)
                  000176e0    00000004     RTOS_config_pem4f.oem4f (.const:ti_sysbios_knl_Task_A_badThreadType__C)
                  000176e4    00000004     RTOS_config_pem4f.oem4f (.const:ti_sysbios_knl_Task_A_badTimeout__C)
                  000176e8    00000004     RTOS_config_pem4f.oem4f (.const:ti_sysbios_knl_Task_A_noPendElem__C)
                  000176ec    00000004     RTOS_config_pem4f.oem4f (.const:ti_sysbios_knl_Task_A_sleepTaskDisabled__C)
                  000176f0    00000004     RTOS_config_pem4f.oem4f (.const:ti_sysbios_knl_Task_E_deleteNotAllowed__C)
                  000176f4    00000004     RTOS_config_pem4f.oem4f (.const:ti_sysbios_knl_Task_E_spOutOfBounds__C)
                  000176f8    00000004     RTOS_config_pem4f.oem4f (.const:ti_sysbios_knl_Task_E_stackOverflow__C)
                  000176fc    00000004     RTOS_config_pem4f.oem4f (.const:ti_sysbios_knl_Task_LD_block__C)
                  00017700    00000004     RTOS_config_pem4f.oem4f (.const:ti_sysbios_knl_Task_LD_exit__C)
                  00017704    00000004     RTOS_config_pem4f.oem4f (.const:ti_sysbios_knl_Task_LD_ready__C)
                  00017708    00000004     RTOS_config_pem4f.oem4f (.const:ti_sysbios_knl_Task_LM_setPri__C)
                  0001770c    00000004     RTOS_config_pem4f.oem4f (.const:ti_sysbios_knl_Task_LM_sleep__C)
                  00017710    00000004     RTOS_config_pem4f.oem4f (.const:ti_sysbios_knl_Task_LM_switch__C)
                  00017714    00000004     RTOS_config_pem4f.oem4f (.const:ti_sysbios_knl_Task_Module_State_inactiveQ__O)
                  00017718    00000004     RTOS_config_pem4f.oem4f (.const:ti_sysbios_knl_Task_Module_State_terminatedQ__O)
                  0001771c    00000004     RTOS_config_pem4f.oem4f (.const:ti_sysbios_knl_Task_Module__diagsEnabled__C)
                  00017720    00000004     RTOS_config_pem4f.oem4f (.const:ti_sysbios_knl_Task_Module__diagsIncluded__C)
                  00017724    00000004     RTOS_config_pem4f.oem4f (.const:ti_sysbios_knl_Task_Module__diagsMask__C)
                  00017728    00000004     RTOS_config_pem4f.oem4f (.const:ti_sysbios_knl_Task_Module__loggerFxn2__C)
                  0001772c    00000004     RTOS_config_pem4f.oem4f (.const:ti_sysbios_knl_Task_Module__loggerFxn4__C)
                  00017730    00000004     RTOS_config_pem4f.oem4f (.const:ti_sysbios_knl_Task_Module__loggerObj__C)
                  00017734    00000004     RTOS_config_pem4f.oem4f (.const:ti_sysbios_knl_Task_Object__count__C)
                  00017738    00000004     RTOS_config_pem4f.oem4f (.const:ti_sysbios_knl_Task_Object__heap__C)
                  0001773c    00000004     RTOS_config_pem4f.oem4f (.const:ti_sysbios_knl_Task_allBlockedFunc__C)
                  00017740    00000004     RTOS_config_pem4f.oem4f (.const:ti_sysbios_knl_Task_defaultStackHeap__C)
                  00017744    00000004     RTOS_config_pem4f.oem4f (.const:ti_sysbios_knl_Task_defaultStackSize__C)
                  00017748    00000004     RTOS_config_pem4f.oem4f (.const:ti_sysbios_knl_Task_numConstructedTasks__C)
                  0001774c    00000004     RTOS_config_pem4f.oem4f (.const:ti_sysbios_utils_Load_LS_cpuLoad__C)
                  00017750    00000004     RTOS_config_pem4f.oem4f (.const:ti_sysbios_utils_Load_LS_taskLoad__C)
                  00017754    00000004     RTOS_config_pem4f.oem4f (.const:ti_sysbios_utils_Load_Module_State_taskList__O)
                  00017758    00000004     RTOS_config_pem4f.oem4f (.const:ti_sysbios_utils_Load_Module__diagsEnabled__C)
                  0001775c    00000004     RTOS_config_pem4f.oem4f (.const:ti_sysbios_utils_Load_Module__diagsIncluded__C)
                  00017760    00000004     RTOS_config_pem4f.oem4f (.const:ti_sysbios_utils_Load_Module__diagsMask__C)
                  00017764    00000004     RTOS_config_pem4f.oem4f (.const:ti_sysbios_utils_Load_Module__loggerFxn1__C)
                  00017768    00000004     RTOS_config_pem4f.oem4f (.const:ti_sysbios_utils_Load_Module__loggerFxn4__C)
                  0001776c    00000004     RTOS_config_pem4f.oem4f (.const:ti_sysbios_utils_Load_Module__loggerObj__C)
                  00017770    00000004     RTOS_config_pem4f.oem4f (.const:ti_sysbios_utils_Load_postUpdate__C)
                  00017774    00000004     RTOS_config_pem4f.oem4f (.const:ti_sysbios_utils_Load_windowInMs__C)
                  00017778    00000004     RTOS_config_pem4f.oem4f (.const:ti_uia_loggers_LoggerStopMode_Module__diagsEnabled__C)
                  0001777c    00000004     RTOS_config_pem4f.oem4f (.const:ti_uia_loggers_LoggerStopMode_Module__diagsIncluded__C)
                  00017780    00000004     RTOS_config_pem4f.oem4f (.const:ti_uia_loggers_LoggerStopMode_Module__diagsMask__C)
                  00017784    00000004     RTOS_config_pem4f.oem4f (.const:ti_uia_loggers_LoggerStopMode_Object__count__C)
                  00017788    00000004     RTOS_config_pem4f.oem4f (.const:ti_uia_runtime_ILoggerSnapshot_Interface__BASE__C)
                  0001778c    00000004     RTOS_config_pem4f.oem4f (.const:ti_uia_runtime_IUIATransfer_Interface__BASE__C)
                  00017790    00000004     RTOS_config_pem4f.oem4f (.const:xdc_runtime_Assert_E_assertFailed__C)
                  00017794    00000004     RTOS_config_pem4f.oem4f (.const:xdc_runtime_Core_A_initializedParams__C)
                  00017798    00000004     RTOS_config_pem4f.oem4f (.const:xdc_runtime_Core_Module__diagsEnabled__C)
                  0001779c    00000004     RTOS_config_pem4f.oem4f (.const:xdc_runtime_Core_Module__diagsIncluded__C)
                  000177a0    00000004     RTOS_config_pem4f.oem4f (.const:xdc_runtime_Core_Module__diagsMask__C)
                  000177a4    00000004     RTOS_config_pem4f.oem4f (.const:xdc_runtime_Error_E_memory__C)
                  000177a8    00000004     RTOS_config_pem4f.oem4f (.const:xdc_runtime_Error_Module__diagsEnabled__C)
                  000177ac    00000004     RTOS_config_pem4f.oem4f (.const:xdc_runtime_Error_Module__diagsIncluded__C)
                  000177b0    00000004     RTOS_config_pem4f.oem4f (.const:xdc_runtime_Error_Module__diagsMask__C)
                  000177b4    00000004     RTOS_config_pem4f.oem4f (.const:xdc_runtime_Error_Module__loggerFxn8__C)
                  000177b8    00000004     RTOS_config_pem4f.oem4f (.const:xdc_runtime_Error_Module__loggerObj__C)
                  000177bc    00000004     RTOS_config_pem4f.oem4f (.const:xdc_runtime_Error_policyFxn__C)
                  000177c0    00000004     RTOS_config_pem4f.oem4f (.const:xdc_runtime_Error_raiseHook__C)
                  000177c4    00000004     RTOS_config_pem4f.oem4f (.const:xdc_runtime_IFilterLogger_Interface__BASE__C)
                  000177c8    00000004     RTOS_config_pem4f.oem4f (.const:xdc_runtime_IGateProvider_Interface__BASE__C)
                  000177cc    00000004     RTOS_config_pem4f.oem4f (.const:xdc_runtime_IHeap_Interface__BASE__C)
                  000177d0    00000004     RTOS_config_pem4f.oem4f (.const:xdc_runtime_ILogger_Interface__BASE__C)
                  000177d4    00000004     RTOS_config_pem4f.oem4f (.const:xdc_runtime_IModule_Interface__BASE__C)
                  000177d8    00000004     RTOS_config_pem4f.oem4f (.const:xdc_runtime_Log_L_error__C)
                  000177dc    00000004     RTOS_config_pem4f.oem4f (.const:xdc_runtime_Memory_defaultHeapInstance__C)
                  000177e0    00000004     RTOS_config_pem4f.oem4f (.const:xdc_runtime_Startup_execImpl__C)
                  000177e4    00000004     RTOS_config_pem4f.oem4f (.const:xdc_runtime_Startup_lastFxns__A)
                  000177e8    00000004     RTOS_config_pem4f.oem4f (.const:xdc_runtime_Startup_maxPasses__C)
                  000177ec    00000004     RTOS_config_pem4f.oem4f (.const:xdc_runtime_Startup_sfxnRts__C)
                  000177f0    00000004     RTOS_config_pem4f.oem4f (.const:xdc_runtime_Startup_sfxnTab__C)
                  000177f4    00000004     RTOS_config_pem4f.oem4f (.const:xdc_runtime_SysMin_bufSize__C)
                  000177f8    00000004     RTOS_config_pem4f.oem4f (.const:xdc_runtime_SysMin_outputFunc__C)
                  000177fc    00000004     RTOS_config_pem4f.oem4f (.const:xdc_runtime_System_Module__gateObj__C)
                  00017800    00000004     RTOS_config_pem4f.oem4f (.const:xdc_runtime_System_abortFxn__C)
                  00017804    00000004     RTOS_config_pem4f.oem4f (.const:xdc_runtime_System_exitFxn__C)
                  00017808    00000004     RTOS_config_pem4f.oem4f (.const:xdc_runtime_System_extendFxn__C)
                  0001780c    00000004     RTOS_config_pem4f.oem4f (.const:xdc_runtime_System_maxAtexitHandlers__C)
                  00017810    00000004     RTOS_config_pem4f.oem4f (.const:xdc_runtime_Text_charTab__C)
                  00017814    00000004     RTOS_config_pem4f.oem4f (.const:xdc_runtime_Text_nameEmpty__C)
                  00017818    00000004     RTOS_config_pem4f.oem4f (.const:xdc_runtime_Text_nameStatic__C)
                  0001781c    00000004     RTOS_config_pem4f.oem4f (.const:xdc_runtime_Text_nameUnknown__C)
                  00017820    00000004     RTOS_config_pem4f.oem4f (.const:xdc_runtime_Text_nodeTab__C)
                  00017824    00000004     RTOS_config_pem4f.oem4f (.const:xdc_runtime_Text_visitRopeFxn__C)
                  00017828    00000002     RTOS_config_pem4f.oem4f (.const:ti_sysbios_family_arm_m3_Hwi_Module__id__C)
                  0001782a    00000002     RTOS_config_pem4f.oem4f (.const:ti_sysbios_family_arm_m3_Hwi_Module__loggerDefined__C)
                  0001782c    00000002     RTOS_config_pem4f.oem4f (.const:ti_sysbios_gates_GateMutex_Module__id__C)
                  0001782e    00000002     RTOS_config_pem4f.oem4f (.const:ti_sysbios_hal_Hwi_Module__id__C)
                  00017830    00000002     RTOS_config_pem4f.oem4f (.const:ti_sysbios_heaps_HeapMem_Module__id__C)
                  00017832    00000002     RTOS_config_pem4f.oem4f (.const:ti_sysbios_knl_Clock_Module__id__C)
                  00017834    00000002     RTOS_config_pem4f.oem4f (.const:ti_sysbios_knl_Clock_Module__loggerDefined__C)
                  00017836    00000002     RTOS_config_pem4f.oem4f (.const:ti_sysbios_knl_Semaphore_Module__id__C)
                  00017838    00000002     RTOS_config_pem4f.oem4f (.const:ti_sysbios_knl_Semaphore_Module__loggerDefined__C)
                  0001783a    00000002     RTOS_config_pem4f.oem4f (.const:ti_sysbios_knl_Swi_Module__id__C)
                  0001783c    00000002     RTOS_config_pem4f.oem4f (.const:ti_sysbios_knl_Swi_Module__loggerDefined__C)
                  0001783e    00000002     RTOS_config_pem4f.oem4f (.const:ti_sysbios_knl_Task_Module__id__C)
                  00017840    00000002     RTOS_config_pem4f.oem4f (.const:ti_sysbios_knl_Task_Module__loggerDefined__C)
                  00017842    00000002     RTOS_config_pem4f.oem4f (.const:ti_sysbios_utils_Load_Module__id__C)
                  00017844    00000002     RTOS_config_pem4f.oem4f (.const:ti_sysbios_utils_Load_Module__loggerDefined__C)
                  00017846    00000002     RTOS_config_pem4f.oem4f (.const:ti_sysbios_utils_Load_autoAddTasks__C)
                  00017848    00000002     RTOS_config_pem4f.oem4f (.const:ti_sysbios_utils_Load_updateInIdle__C)
                  0001784a    00000002     RTOS_config_pem4f.oem4f (.const:ti_uia_loggers_LoggerStopMode_Module__id__C)
                  0001784c    00000002     RTOS_config_pem4f.oem4f (.const:ti_uia_loggers_LoggerStopMode_isTimestampEnabled__C)
                  0001784e    00000002     RTOS_config_pem4f.oem4f (.const:xdc_runtime_Core_Module__id__C)
                  00017850    00000002     RTOS_config_pem4f.oem4f (.const:xdc_runtime_Error_Module__loggerDefined__C)
                  00017852    00000002     RTOS_config_pem4f.oem4f (.const:xdc_runtime_Error_maxDepth__C)
                  00017854    00000002     RTOS_config_pem4f.oem4f (.const:xdc_runtime_Memory_Module__id__C)
                  00017856    00000002     RTOS_config_pem4f.oem4f (.const:xdc_runtime_SysMin_flushAtExit__C)
                  00017858    00000002     RTOS_config_pem4f.oem4f (.const:xdc_runtime_Text_charCnt__C)
                  0001785a    00000002     RTOS_config_pem4f.oem4f (.const:xdc_runtime_Text_isLoaded__C)
                  0001785c    00000002     RTOS_config_pem4f.oem4f (.const:xdc_runtime_Text_registryModsLastId__C)
                  0001785e    00000002     RTOS_config_pem4f.oem4f (.const:xdc_runtime_Text_unnamedModsLastId__C)

.cinit     0    00017860    000004d8     
                  00017860    000004a4     (.cinit..data.load) [load image, compression = lzss]
                  00017d04    0000000c     (__TI_handler_table)
                  00017d10    00000008     (.cinit..bss.load) [load image, compression = zero_init]
                  00017d18    00000008     (.cinit..vecs.load) [load image, compression = zero_init]
                  00017d20    00000018     (__TI_cinit_table)

.init_array 
*          0    00000000    00000000     UNINITIALIZED

.resetVecs 
*          0    00000000    0000003c     
                  00000000    0000003c     RTOS_config_pem4f.oem4f (.resetVecs)

.vecs      0    20000000    00000360     UNINITIALIZED
                  20000000    00000360     RTOS_config_pem4f.oem4f (.vecs)

.bss       0    20000400    000186d8     UNINITIALIZED
                  20000400    00005000     (.common:ti_sysbios_heaps_HeapMem_Instance_State_0_buf__A)
                  20005400    000048a8     RTOS_config_pem4f.oem4f (.bss:NDK_MMBUFFER)
                  20009ca8    0000004c     stk.aem4f : icmp.oem4f (.bss:_ICMPIn)
                  20009cf4    0000000c     (.common:PBMQ_free)
                  20009d00    00003ef8     RTOS_config_pem4f.oem4f (.bss:NDK_PACKETMEM)
                  2000dbf8    00002000     (.common:g_float32_ai0)
                  2000fbf8    00002000     (.common:g_float32_scope)
                  20011bf8    00000008     rtsv7M4_T_le_v4SPD16_eabi.lib : trgdrv.obj (.bss:parmbuf)
                  20011c00    00001000     (.common:ti_uia_loggers_LoggerStopMode_Instance_State_0_packetArray__A)
                  20012c00    00001000     (.common:ti_uia_loggers_LoggerStopMode_Instance_State_2_packetArray__A)
                  20013c00    00001000     (.common:udmaCtrlTable)
                  20014c00    00000e00     RTOS_config_pem4f.oem4f (.bss:taskStackSection)
                  20015a00    00000800     (.common:g_uint16_adc0_ping)
                  20016200    00000800     (.common:g_uint16_adc0_pong)
                  20016a00    00000800     (.common:g_uint16_adc1_ping)
                  20017200    00000800     (.common:g_uint16_adc1_pong)
                  20017a00    00000400     (.common:ti_uia_loggers_LoggerStopMode_Instance_State_1_packetArray__A)
                  20017e00    00000360     (.common:ti_sysbios_family_arm_m3_Hwi_dispatchTable)
                  20018160    00000120     rtsv7M4_T_le_v4SPD16_eabi.lib : trgmsg.obj (.bss:_CIOBUF_)
                  20018280    00000100     stk.aem4f : igmp.oem4f (.bss:igmp)
                  20018380    000000b8               : tcp.oem4f (.bss:tcps)
                  20018438    000000b4     netctrl_min_ipv4.aem4f : netsrv.oem4f (.bss:ipcfgcopy)
                  200184ec    00000090     drivers_tivaware.aem4f : EMACSnow.oem4f (.bss:g_pRxDescriptors)
                  2001857c    00000090                            : EMACSnow.oem4f (.bss:g_pTxDescriptors)
                  2001860c    00000090                            : GPIOTiva.oem4f (.bss:gpioCallbackInfo)
                  2001869c    00000080     (.common:xdc_runtime_SysMin_Module_State_0_outbuf__A)
                  2001871c    00000068     stk.aem4f : ip.oem4f (.bss:ips)
                  20018784    00000064               : nimu.oem4f (.bss:nimu_mcb)
                  200187e8    0000004c               : icmp.oem4f (.bss:_ICMPOut)
                  20018834    00000040     drivers_tivaware.aem4f : EMACSnow.oem4f (.bss:EMACSnow_private)
                  20018874    0000000c     (.common:tpseudo)
                  20018880    00000030     (.common:ti_uia_loggers_LoggerStopMode_Instance_State_0_hdr__A)
                  200188b0    00000028     stk.aem4f : vlan.oem4f (.bss:vlan_mcb)
                  200188d8    00000024     netctrl_min_ipv4.aem4f : netsrv.oem4f (.bss:oscfgcopy)
                  200188fc    00000004     (.common:IPCache)
                  20018900    00000030     (.common:ti_uia_loggers_LoggerStopMode_Instance_State_1_hdr__A)
                  20018930    00000024     stk.aem4f : udp.oem4f (.bss:udps)
                  20018954    0000001c     (.common:BlockCount)
                  20018970    00000010     (.common:igmpCount)
                  20018980    00000030     (.common:ti_uia_loggers_LoggerStopMode_Instance_State_2_hdr__A)
                  200189b0    0000001c     (.common:BlockMax)
                  200189cc    0000001c     (.common:PageCount)
                  200189e8    0000001c     (.common:PageMax)
                  20018a04    00000018     (.common:stkEvent)
                  20018a1c    00000014     (.common:pfnHook)
                  20018a30    00000010     (.common:raweths)
                  20018a40    00000010     (.common:raws)
                  20018a50    0000000c     (.common:upseudo)
                  20018a5c    00000008     (.common:emacObjects)
                  20018a64    00000008     (.common:ti_sysbios_knl_Task_Instance_State_0_hookEnv__A)
                  20018a6c    00000008     (.common:ti_sysbios_knl_Task_Instance_State_1_hookEnv__A)
                  20018a74    00000008     (.common:ti_sysbios_knl_Task_Instance_State_2_hookEnv__A)
                  20018a7c    00000008     (.common:ti_sysbios_knl_Task_Instance_State_3_hookEnv__A)
                  20018a84    00000008     (.common:ti_sysbios_knl_Task_Instance_State_4_hookEnv__A)
                  20018a8c    00000004     (.common:IPTrialAddress)
                  20018a90    00000004     (.common:LastCLKTime)
                  20018a94    00000004     (.common:LastCLKValid)
                  20018a98    00000004     (.common:NetHaltFlag)
                  20018a9c    00000004     (.common:NetReturnCode)
                  20018aa0    00000004     (.common:TimeMS)
                  20018aa4    00000004     (.common:TimeS)
                  20018aa8    00000004     (.common:TimeStart)
                  20018aac    00000004     (.common:_IGMPInDiscard)
                  20018ab0    00000004     (.common:_IGMPInQuery)
                  20018ab4    00000004     (.common:_IGMPInQueryGroup)
                  20018ab8    00000004     (.common:_IGMPInResponse)
                  20018abc    00000004     (.common:_IGMPOutResponse)
                  20018ac0    00000004     (.common:g_ulStatus)
                  20018ac4    00000004     (.common:gpioInterruptVectors)
                  20018ac8    00000004     (.common:hEvent)
                  20018acc    00000004     (.common:hTimer$1)
                  20018ad0    00000004     (.common:hTimer$1)
                  20018ad4    00000004     (.common:raweth_pcb)

.data      0    20018ad8    00000c00     UNINITIALIZED
                  20018ad8    00000190     RTOS_config_pem4f.oem4f (.data:ti_sysbios_knl_Task_Object__table__V)
                  20018c68    000000b4     stk.aem4f : exec.oem4f (.data:_ipcfg)
                  20018d1c    0000009c     RTOS_config_pem4f.oem4f (.data:ti_uia_loggers_LoggerStopMode_Object__table__V)
                  20018db8    00000098     RTOS_config_pem4f.oem4f (.data:ti_sysbios_utils_Load_Module__state__V)
                  20018e50    0000008c     RTOS_config_pem4f.oem4f (.data:ti_sysbios_utils_Load_Module_State_0_taskEnv__A)
                  20018edc    00000080     RTOS_config_pem4f.oem4f (.data:ti_sysbios_family_arm_lm4_Timer_Object__table__V)
                  20018f5c    00000080     RTOS_config_pem4f.oem4f (.data:ti_sysbios_knl_Swi_Module_State_0_readyQ__A)
                  20018fdc    00000080     RTOS_config_pem4f.oem4f (.data:ti_sysbios_knl_Task_Module_State_0_readyQ__A)
                  2001905c    00000060     RTOS_config_pem4f.oem4f (.data:ti_sysbios_family_arm_m3_Hwi_Object__table__V)
                  200190bc    00000050     RTOS_config_pem4f.oem4f (.data:ti_sysbios_knl_Semaphore_Object__table__V)
                  2001910c    0000004d     nettool_ipv4.aem4f : dhcptags.oem4f (.data:DHCPTypeCode)
                  20019159    00000001     --HOLE--
                  2001915a    00000002     RTOS_config_pem4f.oem4f (.data:ti_sysbios_family_arm_m3_Hwi_Module_State_0_excActive__A)
                  2001915c    00000044     RTOS_config_pem4f.oem4f (.data:ti_sysbios_knl_Task_Module__state__V)
                  200191a0    00000040     netctrl_min_ipv4.aem4f : netsrv.oem4f (.data:CloseOrder)
                  200191e0    00000040                            : netsrv.oem4f (.data:OpenOrder)
                  20019220    00000040     RTOS_config_pem4f.oem4f (.data:ti_sysbios_family_arm_lm4_Timer_Module_State_0_device__A)
                  20019260    00000038     RTOS_config_pem4f.oem4f (.data:ti_sysbios_gates_GateMutex_Object__table__V)
                  20019298    00000034     stk.aem4f : tcptime.oem4f (.data:tcp_backoff)
                  200192cc    00000034     RTOS_config_pem4f.oem4f (.data:ti_sysbios_family_arm_m3_Hwi_Module__state__V)
                  20019300    00000032     drivers_tivaware.aem4f : EMACSnow.oem4f (.data)
                  20019332    00000002     RTOS_config_pem4f.oem4f (.data:xdc_runtime_Error_Module__state__V)
                  20019334    00000030     stk.aem4f : exec.oem4f (.data:tasks)
                  20019364    00000030     RTOS_config_pem4f.oem4f (.data:ti_sysbios_knl_Swi_Object__table__V)
                  20019394    0000002c     RTOS_config_pem4f.oem4f (.data:ti_sysbios_knl_Clock_Module__state__V)
                  200193c0    00000028     stk.aem4f : rtc.oem4f (.data)
                  200193e8    00000024     os.aem4f : ossys.oem4f (.data:_oscfg)
                  2001940c    00000024              : mem.oem4f (.data)
                  20019430    00000024     RTOS_config_pem4f.oem4f (.data:ti_sysbios_BIOS_Module__state__V)
                  20019454    00000020     RTOS_config_pem4f.oem4f (.data:ti_sysbios_family_arm_lm4_Timer_Module_State_0_handles__A)
                  20019474    0000001c     netctrl_min_ipv4.aem4f : netctrl.oem4f (.data)
                  20019490    0000001c     RTOS_config_pem4f.oem4f (.data:ti_ndk_config_Global_Id2Size)
                  200194ac    0000001c     RTOS_config_pem4f.oem4f (.data:ti_sysbios_knl_Swi_Module__state__V)
                  200194c8    00000018     RTOS_config_pem4f.oem4f (.data)
                  200194e0    00000018     os.aem4f : task.oem4f (.data)
                  200194f8    00000018     stk.aem4f : sockpcb.oem4f (.data)
                  20019510    00000018     RTOS_config_pem4f.oem4f (.data:ti_sysbios_heaps_HeapMem_Object__table__V)
                  20019528    00000014     stk.aem4f : rtable.oem4f (.data)
                  2001953c    00000010     EK_TM4C1294XL.obj (.data:gpioPinConfigs)
                  2001954c    00000010     stk.aem4f : igmp.oem4f (.data)
                  2001955c    0000000c     rtsv7M4_T_le_v4SPD16_eabi.lib : exit.obj (.data:$O1$$)
                  20019568    0000000c     main.obj (.data)
                  20019574    0000000c     RTOS_config_pem4f.oem4f (.data:ti_sysbios_family_arm_lm4_Timer_Module__state__V)
                  20019580    0000000c     RTOS_config_pem4f.oem4f (.data:ti_sysbios_knl_Task_Module__root__V)
                  2001958c    0000000c     RTOS_config_pem4f.oem4f (.data:ti_uia_runtime_QueueDescriptor_Module__state__V)
                  20019598    0000000c     RTOS_config_pem4f.oem4f (.data:xdc_runtime_SysMin_Module__state__V)
                  200195a4    0000000b     stk.aem4f : tcpout.oem4f (.data)
                  200195af    00000001     --HOLE--
                  200195b0    00000008     rtsv7M4_T_le_v4SPD16_eabi.lib : _lock.obj (.data:$O1$$)
                  200195b8    00000008     EK_TM4C1294XL.obj (.data:NIMUDeviceTable)
                  200195c0    00000008     EK_TM4C1294XL.obj (.data:gpioCallbackFunctions)
                  200195c8    00000008     netctrl_min_ipv4.aem4f : netsrv.oem4f (.data)
                  200195d0    00000008     stk.aem4f : exec.oem4f (.data)
                  200195d8    00000008               : icmp.oem4f (.data)
                  200195e0    00000008               : ip.oem4f (.data)
                  200195e8    00000008               : ipin.oem4f (.data)
                  200195f0    00000008               : lli.oem4f (.data)
                  200195f8    00000008               : tcp.oem4f (.data)
                  20019600    00000008               : timer.oem4f (.data)
                  20019608    00000008     ti.uia.runtime.aem4f : QueueDescriptor.oem4f (.data)
                  20019610    00000008     RTOS_config_pem4f.oem4f (.data:ti_sysbios_family_arm_lm4_TimestampProvider_Module__state__V)
                  20019618    00000008     RTOS_config_pem4f.oem4f (.data:ti_sysbios_family_arm_m3_Hwi_Module__root__V)
                  20019620    00000008     RTOS_config_pem4f.oem4f (.data:ti_sysbios_gates_GateHwi_Module__root__V)
                  20019628    00000008     RTOS_config_pem4f.oem4f (.data:ti_sysbios_gates_GateMutex_Module__root__V)
                  20019630    00000008     RTOS_config_pem4f.oem4f (.data:ti_sysbios_heaps_HeapMem_Module__root__V)
                  20019638    00000008     RTOS_config_pem4f.oem4f (.data:ti_sysbios_knl_Clock_Module__root__V)
                  20019640    00000008     RTOS_config_pem4f.oem4f (.data:ti_sysbios_knl_Queue_Module__root__V)
                  20019648    00000008     RTOS_config_pem4f.oem4f (.data:ti_sysbios_knl_Semaphore_Module__root__V)
                  20019650    00000008     RTOS_config_pem4f.oem4f (.data:ti_sysbios_knl_Swi_Module__root__V)
                  20019658    00000008     RTOS_config_pem4f.oem4f (.data:ti_uia_loggers_LoggerStopMode_Module__root__V)
                  20019660    00000008     RTOS_config_pem4f.oem4f (.data:xdc_runtime_Registry_Module__state__V)
                  20019668    00000008     RTOS_config_pem4f.oem4f (.data:xdc_runtime_Startup_Module__state__V)
                  20019670    00000008     RTOS_config_pem4f.oem4f (.data:xdc_runtime_System_Module_State_0_atexitHandlers__A)
                  20019678    00000008     RTOS_config_pem4f.oem4f (.data:xdc_runtime_System_Module__state__V)
                  20019680    00000006     EK_TM4C1294XL.obj (.data:macAddress)
                  20019686    00000006     stk.aem4f : lliout.oem4f (.data)
                  2001968c    00000005     drivers_tivaware.aem4f : GPIOTiva.oem4f (.data)
                  20019691    00000003     --HOLE--
                  20019694    00000004                            : EMAC.oem4f (.data)
                  20019698    00000004     hal_timer_bios.aem4f : lltimer.oem4f (.data)
                  2001969c    00000004     nettool_ipv4.aem4f : config.oem4f (.data)
                  200196a0    00000004     rtsv7M4_T_le_v4SPD16_eabi.lib : errno.obj (.data)
                  200196a4    00000004                                   : stkdepth_vars.obj (.data)
                  200196a8    00000004     stk.aem4f : bind.oem4f (.data)
                  200196ac    00000004               : ipfrag.oem4f (.data)
                  200196b0    00000004               : lliin.oem4f (.data)
                  200196b4    00000004               : node.oem4f (.data)
                  200196b8    00000004               : pbm.oem4f (.data)
                  200196bc    00000004     RTOS_config_pem4f.oem4f (.data:ti_sysbios_family_arm_m3_Hwi_Module_State_0_excContext__A)
                  200196c0    00000004     RTOS_config_pem4f.oem4f (.data:ti_sysbios_family_arm_m3_Hwi_Module_State_0_excStack__A)
                  200196c4    00000004     RTOS_config_pem4f.oem4f (.data:ti_sysbios_gates_GateHwi_Object__table__V)
                  200196c8    00000004     RTOS_config_pem4f.oem4f (.data:ti_sysbios_knl_Task_Module_State_0_idleTask__A)
                  200196cc    00000004     RTOS_config_pem4f.oem4f (.data:ti_sysbios_utils_Load_Module_State_0_runningTask__A)
                  200196d0    00000004     RTOS_config_pem4f.oem4f (.data:ti_sysbios_utils_Load_Module_State_0_taskStartTime__A)
                  200196d4    00000004     RTOS_config_pem4f.oem4f (.data:xdc_runtime_Memory_Module__state__V)

.stack     0    200196d8    00000800     UNINITIALIZED
                  200196d8    00000800     --HOLE--

.bootVecs 
*          0    00000000    00000008     DSECT
                  00000000    00000008     boot.aem4f : boot.oem4f (.bootVecs)

xdc.meta   0    00000000    000000f1     COPY SECTION
                  00000000    000000f1     RTOS_config_pem4f.oem4f (xdc.meta)

MODULE SUMMARY

       Module                     code    ro data   rw data
       ------                     ----    -------   -------
    .\
       main.obj                   373     0         16396  
    +--+--------------------------+-------+---------+---------+
       Total:                     373     0         16396  
                                                           
    .\project_includes\
       adc_sample.obj             1096    0         12288  
       eth_network.obj            1008    0         0      
       EK_TM4C1294XL.obj          492     60        46     
    +--+--------------------------+-------+---------+---------+
       Total:                     2596    60        12334  
                                                           
    C:\Users\skelter_win\embedded2\TM4C_RTOS_CMSIS_DSP\Debug\configPkg\package\cfg\
       RTOS_config_pem4f.oem4f    4521    10774     72144  
    +--+--------------------------+-------+---------+---------+
       Total:                     4521    10774     72144  
                                                           
    C:/ti/CMSIS-SP-00300-r4p5-00rel0/CMSIS/Lib/CCS/M4/dsplib-cm4f.lib
       arm_rms_f32.obj            132     0         0      
       arm_offset_f32.obj         108     0         0      
       arm_scale_f32.obj          108     0         0      
       arm_copy_f32.obj           72      0         0      
    +--+--------------------------+-------+---------+---------+
       Total:                     420     0         0      
                                                           
    C:/ti/tirtos_tivac_2_16_00_08/products/TivaWare_C_Series-2.1.1.71b/driverlib/ccs/Debug/driverlib.lib
       sysctl.obj                 810     452       0      
       emac.obj                   756     24        0      
       gpio.obj                   572     144       0      
       udma.obj                   464     0         0      
       adc.obj                    294     0         0      
       timer.obj                  220     0         0      
       interrupt.obj              104     112       0      
       flash.obj                  20      0         0      
    +--+--------------------------+-------+---------+---------+
       Total:                     3240    732       0      
                                                           
    C:/ti/tirtos_tivac_2_16_00_08/products/tidrivers_tivac_2_16_00_08/packages/ti/drivers/lib/drivers_tivaware.aem4f
       EMACSnow.oem4f             2006    8         406    
       GPIOTiva.oem4f             764     156       153    
       EMAC.oem4f                 52      0         4      
    +--+--------------------------+-------+---------+---------+
       Total:                     2822    164       563    
                                                           
    C:\Users\skelter_win\embedded2\TM4C_RTOS_CMSIS_DSP\src\sysbios\sysbios.aem4f
       BIOS.obj                   17576   0         0      
       m3_Hwi_asm.obj             314     0         0      
       m3_TaskSupport_asm.obj     180     0         0      
       m3_Hwi_asm_switch.obj      118     0         0      
    +--+--------------------------+-------+---------+---------+
       Total:                     18188   0         0      
                                                           
    C:\ti\ccsv7\tools\compiler\ti-cgt-arm_16.9.3.LTS\lib\rtsv7M4_T_le_v4SPD16_eabi.lib
       trgdrv.obj                 804     0         8      
       trgmsg.obj                 104     0         288    
       memcpy_t2.obj              156     0         0      
       memset_t2.obj              122     0         0      
       copy_decompress_lzss.obj   104     0         0      
       exit.obj                   84      0         12     
       cpy_tbl.obj                76      0         0      
       u_divt2.obj                64      0         0      
       e_sqrtf.obj                40      0         0      
       _lock.obj                  20      0         8      
       args_main.obj              24      0         0      
       strcmp.obj                 24      0         0      
       strcpy.obj                 20      0         0      
       strlen.obj                 20      0         0      
       copy_decompress_none.obj   14      0         0      
       copy_zero_init.obj         12      0         0      
       errno.obj                  0       0         4      
       stkdepth_vars.obj          0       0         4      
       i_div0.obj                 2       0         0      
    +--+--------------------------+-------+---------+---------+
       Total:                     1690    0         324    
                                                           
    C:\ti\tirtos_tivac_2_16_00_08\products\bios_6_45_01_29\packages\ti\catalog\arm\cortexm4\tiva\ce\lib\Boot.aem4f
       Boot_sysctl.oem4f          628     452       0      
       Boot.oem4f                 152     0         0      
    +--+--------------------------+-------+---------+---------+
       Total:                     780     452       0      
                                                           
    C:\ti\tirtos_tivac_2_16_00_08\products\bios_6_45_01_29\packages\ti\targets\arm\rtsarm\lib\auto_init.aem4f
       auto_init.oem4f            160     0         0      
    +--+--------------------------+-------+---------+---------+
       Total:                     160     0         0      
                                                           
    C:\ti\tirtos_tivac_2_16_00_08\products\bios_6_45_01_29\packages\ti\targets\arm\rtsarm\lib\boot.aem4f
       boot.oem4f                 88      0         0      
    +--+--------------------------+-------+---------+---------+
       Total:                     88      0         0      
                                                           
    C:\ti\tirtos_tivac_2_16_00_08\products\bios_6_45_01_29\packages\ti\targets\arm\rtsarm\lib\ti.targets.arm.rtsarm.aem4f
       System.oem4f               1277    0         0      
       Text.oem4f                 672     0         0      
       Error.oem4f                528     0         0      
       Core-mem.oem4f             358     0         0      
       Startup.oem4f              328     0         0      
       SysMin.oem4f               248     0         0      
       Core-smem.oem4f            204     0         0      
       Memory.oem4f               176     0         0      
       Assert.oem4f               84      0         0      
       Core-params.oem4f          70      0         0      
       Core-label.oem4f           52      0         0      
       Registry.oem4f             32      0         0      
       Gate.oem4f                 28      0         0      
       xdc_noinit.oem4f           6       0         0      
    +--+--------------------------+-------+---------+---------+
       Total:                     4063    0         0      
                                                           
    C:\ti\tirtos_tivac_2_16_00_08\products\ndk_2_25_00_09\packages\ti\ndk\hal\ser_stub\lib\hal_ser_stub.aem4f
       llserstb.oem4f             10      0         0      
    +--+--------------------------+-------+---------+---------+
       Total:                     10      0         0      
                                                           
    C:\ti\tirtos_tivac_2_16_00_08\products\ndk_2_25_00_09\packages\ti\ndk\hal\timer_bios\lib\hal_timer_bios.aem4f
       lltimer.oem4f              252     0         28     
    +--+--------------------------+-------+---------+---------+
       Total:                     252     0         28     
                                                           
    C:\ti\tirtos_tivac_2_16_00_08\products\ndk_2_25_00_09\packages\ti\ndk\hal\userled_stub\lib\hal_userled_stub.aem4f
       llled.oem4f                6       0         0      
    +--+--------------------------+-------+---------+---------+
       Total:                     6       0         0      
                                                           
    C:\ti\tirtos_tivac_2_16_00_08\products\ndk_2_25_00_09\packages\ti\ndk\netctrl\lib\netctrl_min_ipv4.aem4f
       netsrv.oem4f               1122    0         352    
       netctrl.oem4f              884     0         60     
    +--+--------------------------+-------+---------+---------+
       Total:                     2006    0         412    
                                                           
    C:\ti\tirtos_tivac_2_16_00_08\products\ndk_2_25_00_09\packages\ti\ndk\nettools\lib\nettool_ipv4.aem4f
       config.oem4f               1760    0         4      
       dhcpsm.oem4f               1028    0         0      
       dhcpbild.oem4f             508     0         0      
       dhcppkt.oem4f              462     0         0      
       dhcpmain.oem4f             406     0         0      
       dhcptags.oem4f             264     0         77     
       dhcpsock.oem4f             332     0         0      
       inetaddr.oem4f             276     0         0      
       ipaddr.oem4f               190     0         4      
    +--+--------------------------+-------+---------+---------+
       Total:                     5226    0         85     
                                                           
    C:\ti\tirtos_tivac_2_16_00_08\products\ndk_2_25_00_09\packages\ti\ndk\os\lib\os.aem4f
       mem.oem4f                  1312    0         148    
       task.oem4f                 1054    0         24     
       semaphore.oem4f            226     0         0      
       ossys.oem4f                140     0         36     
    +--+--------------------------+-------+---------+---------+
       Total:                     2732    0         208    
                                                           
    C:\ti\tirtos_tivac_2_16_00_08\products\ndk_2_25_00_09\packages\ti\ndk\stack\lib\stk.aem4f
       tcpin.oem4f                3312    0         0      
       sock.oem4f                 3010    0         0      
       tcpout.oem4f               2608    0         11     
       igmp.oem4f                 1584    0         308    
       nimu.oem4f                 1549    0         100    
       sockpcb.oem4f              1422    0         24     
       rtable.oem4f               1138    0         24     
       tcpprot.oem4f              1118    0         0      
       node.oem4f                 1079    0         4      
       ipout.oem4f                1032    0         0      
       udp.oem4f                  968     0         48     
       ipin.oem4f                 998     0         8      
       tcptime.oem4f              821     0         52     
       socket.oem4f               828     0         0      
       sb.oem4f                   826     0         0      
       icmpin.oem4f               756     0         0      
       icmp.oem4f                 580     0         160    
       ipfrag.oem4f               712     0         4      
       rtc.oem4f                  592     62        60     
       sockint.oem4f              704     0         0      
       route.oem4f                702     0         0      
       lliout.oem4f               672     0         6      
       tcp.oem4f                  472     0         204    
       lli.oem4f                  652     0         8      
       bind.oem4f                 650     0         4      
       lliin.oem4f                592     0         4      
       pbm.oem4f                  574     0         16     
       exec.oem4f                 302     0         236    
       rawethsock.oem4f           536     0         0      
       ip.oem4f                   378     0         120    
       vlan.oem4f                 396     0         40     
       raw.oem4f                  400     0         16     
       pipe.oem4f                 410     0         0      
       file.oem4f                 398     0         0      
       fileuser.oem4f             312     0         0      
       timer.oem4f                258     0         8      
       raweth.oem4f               224     0         16     
       rawethsock_pcb.oem4f       236     0         4      
       sockprot.oem4f             98      84        0      
       listlib.oem4f              110     0         0      
       rawethsock_prot.oem4f      8       0         0      
       nat.oem4f                  2       0         0      
    +--+--------------------------+-------+---------+---------+
       Total:                     34019   146       1485   
                                                           
    C:\ti\tirtos_tivac_2_16_00_08\products\uia_2_00_05_50\packages\ti\uia\loggers\lib\release\ti.uia.loggers.aem4f
       LoggerStopMode.oem4f       552     0         0      
    +--+--------------------------+-------+---------+---------+
       Total:                     552     0         0      
                                                           
    C:\ti\tirtos_tivac_2_16_00_08\products\uia_2_00_05_50\packages\ti\uia\runtime\lib\release\ti.uia.runtime.aem4f
       QueueDescriptor.oem4f      116     0         8      
    +--+--------------------------+-------+---------+---------+
       Total:                     116     0         8      
                                                           
       Stack:                     0       0         2048   
       Linker Generated:          0       1240      0      
    +--+--------------------------+-------+---------+---------+
       Grand Total:               83860   13568     106035 


LINKER GENERATED COPY TABLES

__TI_cinit_table @ 00017d20 records: 3, size/record: 8, table size: 24
	.data: load addr=00017860, load size=000004a4 bytes, run addr=20018ad8, run size=00000c00 bytes, compression=lzss
	.bss: load addr=00017d10, load size=00000008 bytes, run addr=20000400, run size=000186d8 bytes, compression=zero_init
	.vecs: load addr=00017d18, load size=00000008 bytes, run addr=20000000, run size=00000360 bytes, compression=zero_init


LINKER GENERATED HANDLER TABLE

__TI_handler_table @ 00017d04 records: 3, size/record: 4, table size: 12
	index: 0, handler: __TI_decompress_lzss
	index: 1, handler: __TI_decompress_none
	index: 2, handler: __TI_zero_init


GLOBAL SYMBOLS: SORTED ALPHABETICALLY BY Name 

address   name                                                                 
-------   ----                                                                 
00013db1  ADCClockConfigSet                                                    
000142d1  ADCHardwareOversampleConfigure                                       
0000278d  ADCIntClearEx                                                        
000147b9  ADCIntEnableEx                                                       
000145d7  ADCReferenceSet                                                      
00011bb9  ADCSequenceConfigure                                                 
000143ad  ADCSequenceDMAEnable                                                 
00014551  ADCSequenceDisable                                                   
0001455f  ADCSequenceEnable                                                    
0000dd8d  ADCSequenceStepConfigure                                             
0000d9ad  ADC_Seq0_ISR                                                         
000170c0  ADC_Seq0_ISR_Handle                                                  
0000d081  ADC_Seq1_ISR                                                         
000170c4  ADC_Seq1_ISR_Handle                                                  
00009081  ADC_init                                                             
000133d5  BindFindByHost                                                       
00013a79  BindFindByIF                                                         
00013071  BindFindByNet                                                        
000101a1  BindFree                                                             
000145e5  BindGetFirst                                                         
00002a7d  BindGetIF                                                            
000133f9  BindGetIFByDBCast                                                    
00013c59  BindGetIP                                                            
00002fc5  BindGetNext                                                          
000143bd  BindIF2IPHost                                                        
000143cd  BindIFNet2IPHost                                                     
000140ff  BindIPHost2IF                                                        
00006421  BindNew                                                              
20018954  BlockCount                                                           
200189b0  BlockMax                                                             
00010605  C$$EXIT                                                              
0000f25f  C$$IO$$                                                              
000067e9  CfgAddEntry                                                          
00010461  CfgEntryDeRef                                                        
00011d2d  CfgEntryGetData                                                      
000132c9  CfgEntryInfo                                                         
000136f1  CfgEntryRef                                                          
0000c83d  CfgExecute                                                           
0000f3cd  CfgFree                                                              
0000d105  CfgGetEntry                                                          
0000f7b5  CfgGetEntryCnt                                                       
000127a5  CfgGetImmediate                                                      
0000da29  CfgGetNextEntry                                                      
00010e63  CfgNew                                                               
0000c679  CfgRemoveEntry                                                       
000145f1  CfgSetDefault                                                        
0000fd55  CfgSetExecuteOrder                                                   
00012389  CfgSetService                                                        
00016fcc  Code2Err                                                             
00011bf7  DHCPClose                                                            
0000602d  DHCPOpen                                                             
00009afd  DMA_init                                                             
0000eab1  DbgPrintf                                                            
200194d8  DomainName                                                           
000072f5  EK_TM4C1294XL_initEMAC                                               
000147c1  EK_TM4C1294XL_initGPIO                                               
0000b355  EK_TM4C1294XL_initGeneral                                            
000129a3  EMACAddrSet                                                          
00012041  EMACConfigGet                                                        
000123bd  EMACConfigSet                                                        
000143dd  EMACFrameFilterSet                                                   
0000defd  EMACInit                                                             
000123f1  EMACIntClear                                                         
00011d69  EMACIntDisable                                                       
00012005  EMACIntEnable                                                        
00012cd7  EMACIntStatus                                                        
00010251  EMACPHYConfigSet                                                     
000132ef  EMACPHYRead                                                          
00013315  EMACPHYWrite                                                         
00014039  EMACReset                                                            
0001296b  EMACRxDMADescriptorListSet                                           
0001404f  EMACRxEnable                                                         
0000ad4d  EMACSnow_InitDMADescriptors                                          
00004ac5  EMACSnow_NIMUInit                                                    
00012425  EMACSnow_emacPoll                                                    
00013dc9  EMACSnow_emacSend                                                    
00008371  EMACSnow_emacStart                                                   
0000d5ad  EMACSnow_emacStop                                                    
0001456d  EMACSnow_emacioctl                                                   
00017554  EMACSnow_fxnTable                                                    
0000daa5  EMACSnow_hwiIntFxn                                                   
000145fd  EMACSnow_init                                                        
00012459  EMACSnow_isLinkUp                                                    
0001341d  EMACSnow_pkt_service                                                 
0000d189  EMACSnow_processPhyInterrupt                                         
00013d43  EMACTxDMADescriptorListSet                                           
000147c9  EMACTxDMAPollDemand                                                  
00014065  EMACTxEnable                                                         
00017474  EMAC_config                                                          
0001248d  EMAC_init                                                            
000124c1  ExecClose                                                            
000143ed  ExecHRef                                                             
0001457b  ExecLowResource                                                      
0000c23d  ExecOpen                                                             
00013465  ExecTimer                                                            
00012d03  FdSignalEvent                                                        
0000f815  FdWaitEvent                                                          
00014115  FlashUserGet                                                         
00012f9d  GPIODirModeSet                                                       
00014373  GPIOIntClear                                                         
00014589  GPIOIntStatus                                                        
00010409  GPIOIntTypeSet                                                       
000071c5  GPIOPadConfigSet                                                     
00010ead  GPIOPinConfigure                                                     
000145b3  GPIOPinRead                                                          
000142e3  GPIOPinTypeADC                                                       
000142f5  GPIOPinTypeEthernetLED                                               
00014809  GPIOPinWrite                                                         
000174ec  GPIOTiva_config                                                      
0000f431  GPIO_hwiIntFxn                                                       
0000cba1  GPIO_init                                                            
000107ad  GPIO_setCallback                                                     
00006185  GPIO_setConfig                                                       
000107fd  GPIO_toggle                                                          
200194d4  GatewayIP                                                            
00002743  HOSTclock                                                            
0000270b  HOSTclose                                                            
000026cd  HOSTgetenv                                                           
00002671  HOSTlseek                                                            
0000261f  HOSTopen                                                             
000025d3  HOSTread                                                             
00002575  HOSTrename                                                           
0000253b  HOSTtime                                                             
000024ed  HOSTtime64                                                           
000024b5  HOSTunlink                                                           
00002469  HOSTwrite                                                            
00011565  ICMPChecksum                                                         
00007091  ICMPGenPacket                                                        
000036b9  ICMPInput                                                            
0000a6f9  ICMPSendRtAdv                                                        
00005175  IGMPInput                                                            
0000db9d  IGMPJoin                                                             
000104b5  IGMPLeave                                                            
0000e245  IGMPLeaveHostGroup                                                   
0000c8cd  IGMPMsg                                                              
00012d31  IGMPTestGroup                                                        
00012351  IPChecksum                                                           
0000bf21  IPGetRoute                                                           
0000cc2d  IPMsg                                                                
00003221  IPReasm                                                              
000115a9  IPReasmFree                                                          
00012079  IPReasmTimeout                                                       
00013de1  IPRtChange                                                           
00001d99  IPRxPacket                                                           
00001991  IPTxPacket                                                           
0000ef59  IntEnable                                                            
00005d67  LED_TOGGLE                                                           
00013099  LLIFree                                                              
00009741  LLIGenArpPacket                                                      
000115ed  LLIGetValidTime                                                      
00010ef5  LLIMsg                                                               
0000d6ad  LLINew                                                               
00004e2d  LLIRxPacket                                                          
00004c7d  LLITxIpPacket                                                        
00011a35  LLIValidateRoute                                                     
200194cc  LocalIPAddr                                                          
200194d0  LocalIPMask                                                          
0001379d  NC_BootComplete                                                      
000143fd  NC_IPUpdate                                                          
000057a5  NC_NetStart                                                          
00014129  NC_NetStop                                                           
000130c1  NC_SystemClose                                                       
0000c4b1  NC_SystemOpen                                                        
0000e5e3  NDK_accept                                                           
0001084d  NDK_bind                                                             
00012d5d  NDK_hookCreate                                                       
0001413d  NDK_hookExit                                                         
00014609  NDK_hookInit                                                         
0001196d  NDK_listen                                                           
0000e885  NDK_recv                                                             
0000e653  NDK_send                                                             
0000df75  NDK_sendto                                                           
0000dc19  NDK_setsockopt                                                       
0000efc1  NDK_socket                                                           
00013ab1  NDK_sprintf                                                          
0000346d  NDK_vsprintf                                                         
0000c101  NIMUAddEthernetHeader                                                
00013acd  NIMUAddHeader                                                        
000130e9  NIMUCreatePacket                                                     
200195b8  NIMUDeviceTable                                                      
00013489  NIMUFindByIndex                                                      
000124f5  NIMUFindByName                                                       
0001440d  NIMUGetRsvdSizeInfo                                                  
00012529  NIMUInit                                                             
00007bfd  NIMUIoctl                                                            
00013111  NIMUPacketService                                                    
00012db5  NIMUPacketServiceCheck                                               
0000a625  NIMUReceivePacket                                                    
0000dc95  NIMURegister                                                         
00014151  NIMUSendPacket                                                       
00014615  NIMUSetRsvdSizeInfo                                                  
0000e2b9  NIMUShutdown                                                         
0000f875  NIMUUnregister                                                       
0000d72d  NS_BootTask                                                          
00012a05  NS_PreBoot                                                           
0000836f  NatMsg                                                               
0000a11d  NodeAdd                                                              
00010a81  NodeDeRef                                                            
0000f8d5  NodeFind                                                             
000120b1  NodeGetRt                                                            
00003f35  NodeSetRt                                                            
00007e25  NodeTreeFree                                                         
0000eb1d  NodeTreeNew                                                          
00010f3d  NodeWalk                                                             
00014621  NotifyLowResource                                                    
00010b1d  NtAddNetwork                                                         
000113c1  NtIfIdx2Ip                                                           
00014165  NtRemoveNetwork                                                      
00014829  OEMSysCritOff                                                        
000146b1  OEMSysCritOn                                                         
00012fc7  PBMQ_deq                                                             
0000f495  PBMQ_enq                                                             
20009cf4  PBMQ_free                                                            
0000d7ad  PBM_alloc                                                            
0001462d  PBM_close                                                            
00011a75  PBM_copy                                                             
0000dd11  PBM_free                                                             
0000f029  PBM_open                                                             
2001940c  PITCount                                                             
20019414  PITHigh                                                              
20019410  PITUsed                                                              
200189cc  PageCount                                                            
200189e8  PageMax                                                              
00012de1  PipeClose                                                            
00009179  PipeRecv                                                             
0000e155  PipeSend                                                             
000134ad  RTCAddHook                                                           
0000f935  RTCMsg                                                               
000137dd  RTCRemoveHook                                                        
00005a8d  RTCReport                                                            
0000e32d  RawEthRxPacket                                                       
0001333b  RawEthSockClose                                                      
0000aaf5  RawEthSockNew                                                        
0001255d  RawEthSockNotify                                                     
00010509  RawEthSockPcbAttach                                                  
00013df9  RawEthSockPcbCleanup                                                 
00010f85  RawEthSockPcbDetach                                                  
000134d1  RawEthSockPcbFind                                                    
00014179  RawEthSockPcbInit                                                    
00004905  RawEthSockPrAttach                                                   
0000549d  RawEthSockPrDetach                                                   
00011407  RawEthSockSend                                                       
0000b85d  RawEthSockSet                                                        
0000eb89  RawEthTxPacket                                                       
00007f35  RawInput                                                             
0000d82d  RawOutput                                                            
00011631  RouteMsg                                                             
00008265  RtCreate                                                             
000127d7  RtDeRef                                                              
00008159  RtFind                                                               
0000ffdd  RtRedirect                                                           
0000fc39  RtRemove                                                             
00012809  RtSetFailure                                                         
00013519  RtSetTimeout                                                         
00011de1  RtWalkBegin                                                          
00011675  RtWalkEnd                                                            
0000e8f5  RtWalkNext                                                           
0001283b  SBFlush                                                              
00012ca9  SBFree                                                               
0000f751  SBNew                                                                
00005bfd  SBRead                                                               
0001286d  SBSetMax                                                             
00009dad  SBWrite                                                              
UNDEFED   SHT$$INIT_ARRAY$$Base                                                
UNDEFED   SHT$$INIT_ARRAY$$Limit                                               
00010301  SemCreate                                                            
0000e571  SemCreateBinary                                                      
00014639  SemDelete                                                            
000062d5  SemPend                                                              
000066a5  SemPost                                                              
00006b9d  SemReset                                                             
0000de07  SockAccept                                                           
00012a35  SockBind                                                             
0001055d  SockCleanPcb                                                         
00009831  SockClose                                                            
00005ecd  SockConnect                                                          
0000bd25  SockCreatePacket                                                     
00010dcf  SockDisconnect                                                       
00012a65  SockGetName                                                          
0001289f  SockIntAbort                                                         
0000f091  SockListen                                                           
0000530d  SockNew                                                              
00006925  SockNotify                                                           
00012e0d  SockPcbAttach                                                        
0000a47d  SockPcbBind                                                          
0001353d  SockPcbCleanup                                                       
0000e3a1  SockPcbConnect                                                       
0000cf71  SockPcbCtlError                                                      
000116b9  SockPcbDetach                                                        
00007421  SockPcbResolve                                                       
00010fcd  SockPcbResolveChain                                                  
00011ab5  SockPcbRtChange                                                      
00014307  SockPrAttach                                                         
00012591  SockPrCtlError                                                       
00013ae9  SockPrDetach                                                         
00004335  SockRecv                                                             
00006a61  SockSend                                                             
00002d41  SockSet                                                              
00014319  SockSetOOBData                                                       
00013c73  SockSetOOBMark                                                       
0000e7a5  SockShutdown                                                         
0000f4f9  SockSpawnAbort                                                       
00010b69  SockValidateRoute                                                    
00003b2d  SysCtlClockFreqSet                                                   
0001480f  SysCtlDelay                                                          
000125c5  SysCtlPeripheralEnable                                               
000120e9  SysCtlPeripheralReady                                                
000108ed  SysCtlPeripheralReset                                                
0000f0f9  TIMER_ADC_init                                                       
000147d9  TaskBlock                                                            
00011c73  TaskCreate                                                           
00013b05  TaskDestroy                                                          
00008479  TaskExit                                                             
00009559  TaskGetEnv                                                           
00006cdd  TaskSelf                                                             
00009be5  TaskSetEnv                                                           
00006e1d  TaskSetPri                                                           
00003f39  TaskSleep                                                            
0000f995  TcpChecksum                                                          
00012121  TcpClose                                                             
00011015  TcpDrop                                                              
000079cd  TcpGenPacket                                                         
00000041  TcpInput                                                             
00000ca9  TcpOutput                                                            
0000d20d  TcpPrAttach                                                          
00011e1d  TcpPrConnect                                                         
0001144d  TcpPrCtlError                                                        
00010759  TcpPrDetach                                                          
00011cb1  TcpPrDisconnect                                                      
0000eeed  TcpPrInherit                                                         
00013561  TcpPrListen                                                          
00014815  TcpPrRecv                                                            
00011af5  TcpPrSend                                                            
000119af  TcpPrSendOOB                                                         
0000a1f5  TcpPrSetOption                                                       
00011e59  TcpSetPersist                                                        
00013ee9  TcpTimeoutAdd                                                        
00006565  TcpTimeoutCheck                                                      
0000b639  TcpTimeoutKeep                                                       
000105b1  TcpTimeoutPersist                                                    
000137fd  TcpTimeoutRemove                                                     
00009ccd  TcpTimeoutRexmt                                                      
0000e1cd  TcpTimeoutSackRexmt                                                  
00013585  TcpTimeoutWait2                                                      
00010037  TcpValidateMetrics                                                   
0000dfed  TcpXmitTimer                                                         
0000778d  TimerADCEventSet                                                     
0000f9f5  TimerConfigure                                                       
00010359  TimerControlTrigger                                                  
00014597  TimerEnable                                                          
0001418d  TimerFree                                                            
00012159  TimerHSTick                                                          
0001432b  TimerLoadSet                                                         
00010e19  TimerNew                                                             
0000ebf5  UdpChecksum                                                          
000038f5  UdpInput                                                             
00007545  UdpOutput                                                            
0000b119  VLANDeinit                                                           
000131b1  VLANInit                                                             
0000fcf5  VLANReceivePacket                                                    
20009ca8  _ICMPIn                                                              
200195d8  _ICMPInErrors                                                        
200187e8  _ICMPOut                                                             
200195dc  _ICMPOutErrors                                                       
20019554  _IGMPForceVersion1                                                   
20018aac  _IGMPInDiscard                                                       
20018ab0  _IGMPInQuery                                                         
20018ab4  _IGMPInQueryGroup                                                    
20018ab8  _IGMPInResponse                                                      
20018abc  _IGMPOutResponse                                                     
200195e0  _IPExecuting                                                         
200196ac  _IPReasmPtr                                                          
0001105d  _LLIExpListInsert                                                    
00012e39  _LLIExpListRemove                                                    
0000b4c5  _LLITimeoutCheck                                                     
00012e65  _LLITimeoutFlush                                                     
000110a5  _RtExpListInsert                                                     
00012e91  _RtExpListRemove                                                     
0000f161  _RtNodeInsert                                                        
00011ed1  _RtNodeRemove                                                        
0000a6f7  _TaskInit                                                            
0000c4af  _TaskShutdown                                                        
00000000  __ASM__                                                              
20018160  __CIOBUF_                                                            
0000006f  __ISA__                                                              
00000082  __PLAT__                                                             
20019ed8  __STACK_END                                                          
00000800  __STACK_SIZE                                                         
000000a3  __TARG__                                                             
00017d20  __TI_CINIT_Base                                                      
00017d38  __TI_CINIT_Limit                                                     
00017d04  __TI_Handler_Table_Base                                              
00017d10  __TI_Handler_Table_Limit                                             
0000bfc1  __TI_auto_init                                                       
2001955c  __TI_cleanup_ptr                                                     
0000f1c9  __TI_decompress_lzss                                                 
000145a5  __TI_decompress_none                                                 
20019560  __TI_dtors_ptr                                                       
20019564  __TI_enable_exit_profile_output                                      
ffffffff  __TI_pprof_out_hndl                                                  
ffffffff  __TI_prof_data_size                                                  
ffffffff  __TI_prof_data_start                                                 
0000f263  __TI_readmsg                                                         
00017860  __TI_static_base__                                                   
0000f231  __TI_writemsg                                                        
0001465d  __TI_zero_init                                                       
000000c9  __TRDR__                                                             
0000e1cb  __aeabi_idiv0                                                        
0000de81  __aeabi_memclr                                                       
0000de81  __aeabi_memclr4                                                      
0000de81  __aeabi_memclr8                                                      
0000c2d9  __aeabi_memcpy                                                       
0000c2d9  __aeabi_memcpy4                                                      
0000c2d9  __aeabi_memcpy8                                                      
0000de83  __aeabi_memset                                                       
0000de83  __aeabi_memset4                                                      
0000de83  __aeabi_memset8                                                      
00011b35  __aeabi_uidiv                                                        
00011b35  __aeabi_uidivmod                                                     
ffffffff  __binit__                                                            
ffffffff  __c_args__                                                           
200196d8  __stack                                                              
0001481b  __xdc__init                                                          
200194dc  __xdc__init__addr                                                    
00013f31  _args_main                                                           
000101f9  _c_int00                                                             
20018c68  _ipcfg                                                               
000078ad  _llSerialInit                                                        
0000cee7  _llSerialServiceCheck                                                
0000d07f  _llSerialShutdown                                                    
00011f0d  _llTimerInit                                                         
00014645  _llTimerShutdown                                                     
0000d5ab  _llUserLedInit                                                       
0000d9ab  _llUserLedShutdown                                                   
200195b0  _lock                                                                
0000ccb9  _mmInit                                                              
000141eb  _nop                                                                 
200193e8  _oscfg                                                               
000141e3  _register_lock                                                       
000141dd  _register_unlock                                                     
200195b4  _unlock                                                              
00010609  abort                                                                
00008a8d  adcPinConfig                                                         
00011135  arm_copy_f32                                                         
0000ec61  arm_offset_f32                                                       
0000d291  arm_rms_f32                                                          
0000eccd  arm_scale_f32                                                        
ffffffff  binit                                                                
00010bb5  copy_in                                                              
00010091  dhcpBuildDecline                                                     
00012191  dhcpBuildDiscover                                                    
0000fa55  dhcpBuildOptions                                                     
0000c19f  dhcpBuildRequest                                                     
0000e815  dhcpDecodeType                                                       
000121c9  dhcpOptionsClear                                                     
00008789  dhcpPacketProcess                                                    
000131d9  dhcpPacketReceive                                                    
00012a95  dhcpPacketSend                                                       
00013f01  dhcpSocketClose                                                      
00009e89  dhcpSocketOpen                                                       
00009f65  dhcpState                                                            
0000a95d  dhcpVerifyMessage                                                    
00017528  emacHWAttrs                                                          
20018a5c  emacObjects                                                          
20019300  enablePrefetch                                                       
200196a0  errno                                                                
00010611  exit                                                                 
0000d92d  fdClose                                                              
000119f1  fdCloseSession                                                       
0000e065  fdOpenSession                                                        
0001407b  fdint_freefdt                                                        
00013c8d  fdint_getfdt                                                         
0001117d  fdint_lockfd                                                         
00014791  fdint_signalevent                                                    
0001479b  fdint_signaltimeout                                                  
00011cef  fdint_unlockfd                                                       
00012201  fdint_waitevent                                                      
2000dbf8  g_float32_ai0                                                        
2000fbf8  g_float32_scope                                                      
20015a00  g_uint16_adc0_ping                                                   
20016200  g_uint16_adc0_pong                                                   
20016a00  g_uint16_adc1_ping                                                   
20017200  g_uint16_adc1_pong                                                   
20018ac0  g_ulStatus                                                           
200195c0  gpioCallbackFunctions                                                
2001953c  gpioPinConfigs                                                       
0001433d  heartBeat_Task                                                       
000170e0  heartBeat_Task_Handle                                                
0001434f  inet_addr                                                            
0000888b  inet_aton                                                            
000141c9  initSamplesTask                                                      
000170c8  initSamplesTask_Handle                                               
2001871c  ips                                                                  
00013f19  list_add                                                             
00008045  list_get_head                                                        
00008e85  list_get_next                                                        
000139e1  list_remove                                                          
00012ac5  list_remove_node                                                     
00008581  llEnter                                                              
0000e0dd  llExit                                                               
0000defb  llSerialService                                                      
00014669  llTimerGetStartTime                                                  
00011741  llTimerGetTime                                                       
0000f55d  llTimerTick                                                          
20019680  macAddress                                                           
00010d39  main                                                                 
200196a4  main_func_sp                                                         
20019570  maxIndex                                                             
2001956c  maxValue                                                             
0000c2d9  memcpy                                                               
0000de89  memset                                                               
00004fd9  mmAlloc                                                              
0000c95d  mmBulkAlloc                                                          
0000d315  mmBulkFree                                                           
000100eb  mmCopy                                                               
0000d399  mmFree                                                               
00011493  mmZeroInit                                                           
0000e415  netOpenHook                                                          
20018784  nimu_mcb                                                             
000144b1  osi_TaskDisable                                                      
00014451  osi_start                                                            
20019304  phyCounter                                                           
200193c0  pstrMsgName                                                          
200195fc  ptTimeFirst                                                          
20018ad4  raweth_pcb                                                           
20018a30  raweths                                                              
20018a40  raws                                                                 
00008685  rmsCalc_Task                                                         
000170d0  rmsCalc_Task_Handle                                                  
20019568  rms_ai0                                                              
000170d4  s_adc0_ping_ready                                                    
000170cc  s_adc0_pong_ready                                                    
000170d8  s_adc1_ping_ready                                                    
000170dc  s_adc1_pong_ready                                                    
00013201  sqrtf                                                                
20018a04  stkEvent                                                             
00013f49  strcmp                                                               
000141f1  strcpy                                                               
00014205  strlen                                                               
0000471d  tcpHandler                                                           
0000ac85  tcpWorker                                                            
200195f8  tcp_iss                                                              
20018380  tcps                                                                 
00017584  ti_catalog_arm_cortexm4_tiva_ce_Boot_A_mustNotUseEnhancedClockMode__C
00017588  ti_catalog_arm_cortexm4_tiva_ce_Boot_Module__diagsEnabled__C         
0001758c  ti_catalog_arm_cortexm4_tiva_ce_Boot_Module__diagsIncluded__C        
00017590  ti_catalog_arm_cortexm4_tiva_ce_Boot_Module__diagsMask__C            
000168ea  ti_catalog_arm_cortexm4_tiva_ce_Boot_Module__id__C                   
0001439d  ti_catalog_arm_cortexm4_tiva_ce_Boot_init__I                         
00003d31  ti_catalog_arm_cortexm4_tiva_ce_Boot_sysCtlClockFreqSetI__I          
0000c5e1  ti_catalog_arm_cortexm4_tiva_ce_Boot_sysCtlClockFreqSet__E           
200194c8  ti_ndk_config_Global_HostName                                        
20019490  ti_ndk_config_Global_Id2Size                                         
000170b4  ti_ndk_config_Global_largest                                         
000170b8  ti_ndk_config_Global_numFrameBuf                                     
20009d00  ti_ndk_config_Global_pBufMem                                         
2000d900  ti_ndk_config_Global_pHdrMem                                         
20005400  ti_ndk_config_Global_pit                                             
200054a8  ti_ndk_config_Global_pitBuffer                                       
000170ac  ti_ndk_config_Global_rawPageCount                                    
000170a8  ti_ndk_config_Global_rawPageSize                                     
000170bc  ti_ndk_config_Global_sizeFrameBuf                                    
000170b0  ti_ndk_config_Global_smallest                                        
00007669  ti_ndk_config_Global_stackThread                                     
00013b59  ti_ndk_config_global_taskCreateHook                                  
0001422d  ti_ndk_config_global_taskExitHook                                    
0000bb1d  ti_ndk_config_ip_init                                                
00010145  ti_ndk_config_tcp_init                                               
00013361  ti_ndk_config_udp_init                                               
20019430  ti_sysbios_BIOS_Module__state__V                                     
00013cdb  ti_sysbios_BIOS_RtsGateProxy_Handle__label__S                        
0001363d  ti_sysbios_BIOS_RtsGateProxy_Object__delete__S                       
0000b1d5  ti_sysbios_BIOS_RtsGateProxy_enter__E                                
0000b295  ti_sysbios_BIOS_RtsGateProxy_leave__E                                
00014861  ti_sysbios_BIOS_RtsGateProxy_query__E                                
00012af5  ti_sysbios_BIOS_atExitFunc__I                                        
00013a3b  ti_sysbios_BIOS_errorRaiseHook__I                                    
00014091  ti_sysbios_BIOS_exitFunc__I                                          
00014431  ti_sysbios_BIOS_getCpuFreq__E                                        
00014679  ti_sysbios_BIOS_getThreadType__E                                     
0000e6c3  ti_sysbios_BIOS_nullFunc__I                                          
000135cd  ti_sysbios_BIOS_registerRTSLock__I                                   
000135f1  ti_sysbios_BIOS_removeRTSLock__I                                     
0001383d  ti_sysbios_BIOS_rtsLock__I                                           
00013f61  ti_sysbios_BIOS_rtsUnlock__I                                         
00014441  ti_sysbios_BIOS_setThreadType__E                                     
00013251  ti_sysbios_BIOS_startFunc__I                                         
00014451  ti_sysbios_BIOS_start__E                                             
20019220  ti_sysbios_family_arm_lm4_Timer_Module_State_0_device__A             
20019454  ti_sysbios_family_arm_lm4_Timer_Module_State_0_handles__A            
00013f79  ti_sysbios_family_arm_lm4_Timer_Module__startupDone__F               
00013f79  ti_sysbios_family_arm_lm4_Timer_Module__startupDone__S               
20019574  ti_sysbios_family_arm_lm4_Timer_Module__state__V                     
0000f5c1  ti_sysbios_family_arm_lm4_Timer_Module_startup__E                    
20018edc  ti_sysbios_family_arm_lm4_Timer_Object__table__V                     
00017594  ti_sysbios_family_arm_lm4_Timer_enableFunc__C                        
0000bdd1  ti_sysbios_family_arm_lm4_Timer_enableTimers__I                      
0000bbc9  ti_sysbios_family_arm_lm4_Timer_enableTiva__I                        
00014689  ti_sysbios_family_arm_lm4_Timer_getMaxTicks__E                       
00014851  ti_sysbios_family_arm_lm4_Timer_getPeriod__E                         
0000fab9  ti_sysbios_family_arm_lm4_Timer_isrStub__E                           
000147e1  ti_sysbios_family_arm_lm4_Timer_masterDisable__I                     
0000b57d  ti_sysbios_family_arm_lm4_Timer_masterEnable__I                      
00017598  ti_sysbios_family_arm_lm4_Timer_numTimerDevices__C                   
00004909  ti_sysbios_family_arm_lm4_Timer_start__E                             
0001759c  ti_sysbios_family_arm_lm4_Timer_startupNeeded__C                     
00011b79  ti_sysbios_family_arm_lm4_Timer_startup__E                           
00011789  ti_sysbios_family_arm_lm4_Timer_stop__E                              
00013759  ti_sysbios_family_arm_lm4_Timer_write__I                             
20019610  ti_sysbios_family_arm_lm4_TimestampProvider_Module__state__V         
00014821  ti_sysbios_family_arm_lm4_TimestampProvider_Module_startup__E        
0000a2d1  ti_sysbios_family_arm_lm4_TimestampProvider_get32__E                 
00005629  ti_sysbios_family_arm_lm4_TimestampProvider_get64__E                 
00014431  ti_sysbios_family_arm_lm4_TimestampProvider_getFreq__E               
00014461  ti_sysbios_family_arm_lm4_TimestampProvider_rolloverFunc__E          
00014699  ti_sysbios_family_arm_lm4_TimestampProvider_startTimer__E            
000170a6  ti_sysbios_family_arm_lm4_TimestampProvider_useClockTimer__C         
000175a0  ti_sysbios_family_arm_m3_Hwi_E_NMI__C                                
000175a4  ti_sysbios_family_arm_m3_Hwi_E_alreadyDefined__C                     
000175a8  ti_sysbios_family_arm_m3_Hwi_E_busFault__C                           
000175ac  ti_sysbios_family_arm_m3_Hwi_E_debugMon__C                           
000175b0  ti_sysbios_family_arm_m3_Hwi_E_hardFault__C                          
000175b4  ti_sysbios_family_arm_m3_Hwi_E_memFault__C                           
000175b8  ti_sysbios_family_arm_m3_Hwi_E_noIsr__C                              
000175bc  ti_sysbios_family_arm_m3_Hwi_E_reserved__C                           
000175c0  ti_sysbios_family_arm_m3_Hwi_E_svCall__C                             
000175c4  ti_sysbios_family_arm_m3_Hwi_E_usageFault__C                         
00013ca7  ti_sysbios_family_arm_m3_Hwi_Handle__label__S                        
00012631  ti_sysbios_family_arm_m3_Hwi_Instance_finalize__E                    
0000c711  ti_sysbios_family_arm_m3_Hwi_Instance_init__E                        
000175c8  ti_sysbios_family_arm_m3_Hwi_LD_end__C                               
000175cc  ti_sysbios_family_arm_m3_Hwi_LM_begin__C                             
2001915a  ti_sysbios_family_arm_m3_Hwi_Module_State_0_excActive__A             
200196bc  ti_sysbios_family_arm_m3_Hwi_Module_State_0_excContext__A            
200196c0  ti_sysbios_family_arm_m3_Hwi_Module_State_0_excStack__A              
000175d0  ti_sysbios_family_arm_m3_Hwi_Module__diagsEnabled__C                 
000175d4  ti_sysbios_family_arm_m3_Hwi_Module__diagsIncluded__C                
000175d8  ti_sysbios_family_arm_m3_Hwi_Module__diagsMask__C                    
00017828  ti_sysbios_family_arm_m3_Hwi_Module__id__C                           
0001782a  ti_sysbios_family_arm_m3_Hwi_Module__loggerDefined__C                
000175dc  ti_sysbios_family_arm_m3_Hwi_Module__loggerFxn1__C                   
000175e0  ti_sysbios_family_arm_m3_Hwi_Module__loggerFxn8__C                   
000175e4  ti_sysbios_family_arm_m3_Hwi_Module__loggerObj__C                    
20019618  ti_sysbios_family_arm_m3_Hwi_Module__root__V                         
00013f91  ti_sysbios_family_arm_m3_Hwi_Module__startupDone__F                  
00013f91  ti_sysbios_family_arm_m3_Hwi_Module__startupDone__S                  
200192cc  ti_sysbios_family_arm_m3_Hwi_Module__state__V                        
00010991  ti_sysbios_family_arm_m3_Hwi_Module_startup__E                       
000175e8  ti_sysbios_family_arm_m3_Hwi_NUM_INTERRUPTS__C                       
00017334  ti_sysbios_family_arm_m3_Hwi_Object__DESC__C                         
00017180  ti_sysbios_family_arm_m3_Hwi_Object__PARAMS__C                       
000175ec  ti_sysbios_family_arm_m3_Hwi_Object__count__C                        
0001385d  ti_sysbios_family_arm_m3_Hwi_Object__delete__S                       
00014241  ti_sysbios_family_arm_m3_Hwi_Object__get__S                          
2001905c  ti_sysbios_family_arm_m3_Hwi_Object__table__V                        
000146a5  ti_sysbios_family_arm_m3_Hwi_Params__init__S                         
000175f0  ti_sysbios_family_arm_m3_Hwi_ccr__C                                  
0000f625  ti_sysbios_family_arm_m3_Hwi_create                                  
0000b6ed  ti_sysbios_family_arm_m3_Hwi_delete                                  
000146b1  ti_sysbios_family_arm_m3_Hwi_disableFxn__E                           
000111c9  ti_sysbios_family_arm_m3_Hwi_disableInterrupt__E                     
00006e21  ti_sysbios_family_arm_m3_Hwi_dispatchC__I                            
20017e00  ti_sysbios_family_arm_m3_Hwi_dispatchTable                           
0000964d  ti_sysbios_family_arm_m3_Hwi_dispatch__I                             
000147e9  ti_sysbios_family_arm_m3_Hwi_doSwiRestore__I                         
00013619  ti_sysbios_family_arm_m3_Hwi_doTaskRestore__I                        
00011211  ti_sysbios_family_arm_m3_Hwi_enableInterrupt__E                      
00005919  ti_sysbios_family_arm_m3_Hwi_excBusFault__I                          
0000b1d9  ti_sysbios_family_arm_m3_Hwi_excDebugMon__I                          
00001561  ti_sysbios_family_arm_m3_Hwi_excDumpRegs__I                          
0001387d  ti_sysbios_family_arm_m3_Hwi_excHandlerAsm__I                        
000175f4  ti_sysbios_family_arm_m3_Hwi_excHandlerFunc__C                       
00004139  ti_sysbios_family_arm_m3_Hwi_excHandlerMax__I                        
000138a1  ti_sysbios_family_arm_m3_Hwi_excHandler__I                           
0000b299  ti_sysbios_family_arm_m3_Hwi_excHardFault__I                         
0001755c  ti_sysbios_family_arm_m3_Hwi_excHookFuncs__A                         
000175f8  ti_sysbios_family_arm_m3_Hwi_excHookFuncs__C                         
000062d9  ti_sysbios_family_arm_m3_Hwi_excMemFault__I                          
00012669  ti_sysbios_family_arm_m3_Hwi_excNmi__I                               
00012239  ti_sysbios_family_arm_m3_Hwi_excNoIsr__I                             
00011259  ti_sysbios_family_arm_m3_Hwi_excReserved__I                          
00011f49  ti_sysbios_family_arm_m3_Hwi_excSvCall__I                            
00005d69  ti_sysbios_family_arm_m3_Hwi_excUsageFault__I                        
000117d1  ti_sysbios_family_arm_m3_Hwi_getStackInfo__E                         
0000c7a9  ti_sysbios_family_arm_m3_Hwi_initNVIC__E                             
000103b1  ti_sysbios_family_arm_m3_Hwi_initStacks__E                           
000175fc  ti_sysbios_family_arm_m3_Hwi_nullIsrFunc__C                          
e000e000  ti_sysbios_family_arm_m3_Hwi_nvic                                    
00013387  ti_sysbios_family_arm_m3_Hwi_pendSV__I                               
0000d421  ti_sysbios_family_arm_m3_Hwi_postInit__I                             
00017600  ti_sysbios_family_arm_m3_Hwi_priGroup__C                             
20000000  ti_sysbios_family_arm_m3_Hwi_ramVectors                              
00000000  ti_sysbios_family_arm_m3_Hwi_resetVectors                            
00014829  ti_sysbios_family_arm_m3_Hwi_restoreFxn__E                           
000133ab  ti_sysbios_family_arm_m3_Hwi_return                                  
000147f1  ti_sysbios_family_arm_m3_Hwi_startup__E                              
00014259  ti_sysbios_family_arm_m3_Hwi_switchFromBootStack__E                  
0000b7a5  ti_sysbios_family_arm_m3_TaskSupport_Module__startupDone__S          
0000cdd1  ti_sysbios_family_arm_m3_TaskSupport_buildTaskStack                  
000146c1  ti_sysbios_family_arm_m3_TaskSupport_checkStack__E                   
000146d1  ti_sysbios_family_arm_m3_TaskSupport_getStackAlignment__E            
00014471  ti_sysbios_family_arm_m3_TaskSupport_glue                            
00017604  ti_sysbios_family_arm_m3_TaskSupport_stackAlignment__C               
00012b29  ti_sysbios_family_arm_m3_TaskSupport_start__E                        
00013fa9  ti_sysbios_family_arm_m3_TaskSupport_swap__E                         
00013a59  ti_sysbios_family_xxx_Hwi_switchAndRunFunc                           
00013cc1  ti_sysbios_gates_GateHwi_Handle__label__S                            
00014871  ti_sysbios_gates_GateHwi_Instance_init__E                            
00017280  ti_sysbios_gates_GateHwi_Module__FXNS__C                             
20019620  ti_sysbios_gates_GateHwi_Module__root__V                             
00017354  ti_sysbios_gates_GateHwi_Object__DESC__C                             
000174a4  ti_sysbios_gates_GateHwi_Object__PARAMS__C                           
00012b59  ti_sysbios_gates_GateHwi_Object__create__S                           
000138c1  ti_sysbios_gates_GateHwi_Object__delete__S                           
200196c4  ti_sysbios_gates_GateHwi_Object__table__V                            
000146e1  ti_sysbios_gates_GateHwi_enter__E                                    
00014831  ti_sysbios_gates_GateHwi_leave__E                                    
00014859  ti_sysbios_gates_GateHwi_query__E                                    
00017608  ti_sysbios_gates_GateMutex_A_badContext__C                           
00013cdb  ti_sysbios_gates_GateMutex_Handle__label__S                          
0001760c  ti_sysbios_gates_GateMutex_Instance_State_sem__O                     
00014481  ti_sysbios_gates_GateMutex_Instance_finalize__E                      
00013b79  ti_sysbios_gates_GateMutex_Instance_init__E                          
000172a4  ti_sysbios_gates_GateMutex_Module__FXNS__C                           
00017610  ti_sysbios_gates_GateMutex_Module__diagsEnabled__C                   
00017614  ti_sysbios_gates_GateMutex_Module__diagsIncluded__C                  
00017618  ti_sysbios_gates_GateMutex_Module__diagsMask__C                      
0001782c  ti_sysbios_gates_GateMutex_Module__id__C                             
20019628  ti_sysbios_gates_GateMutex_Module__root__V                           
00017374  ti_sysbios_gates_GateMutex_Object__DESC__C                           
000174bc  ti_sysbios_gates_GateMutex_Object__PARAMS__C                         
00012b89  ti_sysbios_gates_GateMutex_Object__create__S                         
0001363d  ti_sysbios_gates_GateMutex_Object__delete__S                         
20019260  ti_sysbios_gates_GateMutex_Object__table__V                          
0000b6f1  ti_sysbios_gates_GateMutex_enter__E                                  
00013fc1  ti_sysbios_gates_GateMutex_leave__E                                  
00014861  ti_sysbios_gates_GateMutex_query__E                                  
0001761c  ti_sysbios_hal_Hwi_E_stackOverflow__C                                
00013ca7  ti_sysbios_hal_Hwi_HwiProxy_Handle__label__S                         
00013f91  ti_sysbios_hal_Hwi_HwiProxy_Module__startupDone__S                   
0001385d  ti_sysbios_hal_Hwi_HwiProxy_Object__delete__S                        
000146a5  ti_sysbios_hal_Hwi_HwiProxy_Params__init__S                          
000111c9  ti_sysbios_hal_Hwi_HwiProxy_disableInterrupt__E                      
000146b1  ti_sysbios_hal_Hwi_HwiProxy_disable__E                               
00011211  ti_sysbios_hal_Hwi_HwiProxy_enableInterrupt__E                       
000117d1  ti_sysbios_hal_Hwi_HwiProxy_getStackInfo__E                          
00014829  ti_sysbios_hal_Hwi_HwiProxy_restore__E                               
000147f1  ti_sysbios_hal_Hwi_HwiProxy_startup__E                               
00014259  ti_sysbios_hal_Hwi_HwiProxy_switchFromBootStack__E                   
0001782e  ti_sysbios_hal_Hwi_Module__id__C                                     
00014361  ti_sysbios_hal_Hwi_Module_startup__E                                 
000126a1  ti_sysbios_hal_Hwi_checkStack                                        
00012939  ti_sysbios_hal_Hwi_initStack                                         
00017620  ti_sysbios_heaps_HeapMem_A_align__C                                  
00017624  ti_sysbios_heaps_HeapMem_A_heapSize__C                               
00017628  ti_sysbios_heaps_HeapMem_A_invalidFree__C                            
0001762c  ti_sysbios_heaps_HeapMem_A_zeroBlock__C                              
00017630  ti_sysbios_heaps_HeapMem_E_memory__C                                 
00013cf5  ti_sysbios_heaps_HeapMem_Handle__label__S                            
20000400  ti_sysbios_heaps_HeapMem_Instance_State_0_buf__A                     
00006ba1  ti_sysbios_heaps_HeapMem_Instance_init__E                            
00013cdb  ti_sysbios_heaps_HeapMem_Module_GateProxy_Handle__label__S           
0001363d  ti_sysbios_heaps_HeapMem_Module_GateProxy_Object__delete__S          
0000b90d  ti_sysbios_heaps_HeapMem_Module_GateProxy_enter__E                   
0000bc75  ti_sysbios_heaps_HeapMem_Module_GateProxy_leave__E                   
00014861  ti_sysbios_heaps_HeapMem_Module_GateProxy_query__E                   
000171e0  ti_sysbios_heaps_HeapMem_Module__FXNS__C                             
00017634  ti_sysbios_heaps_HeapMem_Module__diagsEnabled__C                     
00017638  ti_sysbios_heaps_HeapMem_Module__diagsIncluded__C                    
0001763c  ti_sysbios_heaps_HeapMem_Module__diagsMask__C                        
00017640  ti_sysbios_heaps_HeapMem_Module__gateObj__C                          
00017830  ti_sysbios_heaps_HeapMem_Module__id__C                               
20019630  ti_sysbios_heaps_HeapMem_Module__root__V                             
00017394  ti_sysbios_heaps_HeapMem_Object__DESC__C                             
000172c8  ti_sysbios_heaps_HeapMem_Object__PARAMS__C                           
00017644  ti_sysbios_heaps_HeapMem_Object__count__C                            
00012bb9  ti_sysbios_heaps_HeapMem_Object__create__S                           
000138e1  ti_sysbios_heaps_HeapMem_Object__delete__S                           
0001426d  ti_sysbios_heaps_HeapMem_Object__get__S                              
20019510  ti_sysbios_heaps_HeapMem_Object__table__V                            
00003471  ti_sysbios_heaps_HeapMem_alloc__E                                    
00002fc9  ti_sysbios_heaps_HeapMem_free__E                                     
00010c01  ti_sysbios_heaps_HeapMem_getStats__E                                 
00011f89  ti_sysbios_heaps_HeapMem_init__I                                     
00014839  ti_sysbios_heaps_HeapMem_isBlocking__E                               
00017648  ti_sysbios_heaps_HeapMem_reqAlign__C                                 
0001764c  ti_sysbios_knl_Clock_A_badThreadType__C                              
00007791  ti_sysbios_knl_Clock_Instance_init__E                                
00017650  ti_sysbios_knl_Clock_LM_begin__C                                     
00017654  ti_sysbios_knl_Clock_LM_tick__C                                      
00017658  ti_sysbios_knl_Clock_LW_delayed__C                                   
0001765c  ti_sysbios_knl_Clock_Module_State_clockQ__O                          
00017660  ti_sysbios_knl_Clock_Module__diagsEnabled__C                         
00017664  ti_sysbios_knl_Clock_Module__diagsIncluded__C                        
00017668  ti_sysbios_knl_Clock_Module__diagsMask__C                            
00017832  ti_sysbios_knl_Clock_Module__id__C                                   
00017834  ti_sysbios_knl_Clock_Module__loggerDefined__C                        
0001766c  ti_sysbios_knl_Clock_Module__loggerFxn1__C                           
00017670  ti_sysbios_knl_Clock_Module__loggerFxn2__C                           
00017674  ti_sysbios_knl_Clock_Module__loggerObj__C                            
20019638  ti_sysbios_knl_Clock_Module__root__V                                 
20019394  ti_sysbios_knl_Clock_Module__state__V                                
00013661  ti_sysbios_knl_Clock_Module_startup__E                               
000173b4  ti_sysbios_knl_Clock_Object__DESC__C                                 
000172ec  ti_sysbios_knl_Clock_Object__PARAMS__C                               
000146ed  ti_sysbios_knl_Clock_Params__init__S                                 
00013f79  ti_sysbios_knl_Clock_TimerProxy_Module__startupDone__S               
0000bdcd  ti_sysbios_knl_Clock_TimerProxy_getMaxTicks__E                       
0000c375  ti_sysbios_knl_Clock_TimerProxy_getPeriod__E                         
00011b79  ti_sysbios_knl_Clock_TimerProxy_startup__E                           
00012271  ti_sysbios_knl_Clock_create                                          
00012ebd  ti_sysbios_knl_Clock_doTick__I                                       
000146f9  ti_sysbios_knl_Clock_getTicks__E                                     
0000fb19  ti_sysbios_knl_Clock_logTick__E                                      
0000e489  ti_sysbios_knl_Clock_start__E                                        
00006ce1  ti_sysbios_knl_Clock_workFunc__E                                     
00017538  ti_sysbios_knl_Idle_funcList__A                                      
00017564  ti_sysbios_knl_Idle_funcList__C                                      
000145b9  ti_sysbios_knl_Idle_loop__E                                          
00013901  ti_sysbios_knl_Idle_run__E                                           
00014841  ti_sysbios_knl_Queue_Instance_init__E                                
20019640  ti_sysbios_knl_Queue_Module__root__V                                 
000173d4  ti_sysbios_knl_Queue_Object__DESC__C                                 
000174d4  ti_sysbios_knl_Queue_Object__PARAMS__C                               
00013b95  ti_sysbios_knl_Queue_Object__destruct__S                             
00014705  ti_sysbios_knl_Queue_Object__get__S                                  
00012ee9  ti_sysbios_knl_Queue_construct                                       
0000c70d  ti_sysbios_knl_Queue_destruct                                        
000145c9  ti_sysbios_knl_Queue_empty__E                                        
00017678  ti_sysbios_knl_Semaphore_A_badContext__C                             
0001767c  ti_sysbios_knl_Semaphore_A_noEvents__C                               
00017680  ti_sysbios_knl_Semaphore_A_overflow__C                               
00017684  ti_sysbios_knl_Semaphore_A_pendTaskDisabled__C                       
00017688  ti_sysbios_knl_Semaphore_Instance_State_pendQ__O                     
00014491  ti_sysbios_knl_Semaphore_Instance_finalize__E                        
0000c379  ti_sysbios_knl_Semaphore_Instance_init__E                            
0001768c  ti_sysbios_knl_Semaphore_LM_pend__C                                  
00017690  ti_sysbios_knl_Semaphore_LM_post__C                                  
00017694  ti_sysbios_knl_Semaphore_Module__diagsEnabled__C                     
00017698  ti_sysbios_knl_Semaphore_Module__diagsIncluded__C                    
0001769c  ti_sysbios_knl_Semaphore_Module__diagsMask__C                        
00017836  ti_sysbios_knl_Semaphore_Module__id__C                               
00017838  ti_sysbios_knl_Semaphore_Module__loggerDefined__C                    
000176a0  ti_sysbios_knl_Semaphore_Module__loggerFxn2__C                       
000176a4  ti_sysbios_knl_Semaphore_Module__loggerFxn4__C                       
000176a8  ti_sysbios_knl_Semaphore_Module__loggerObj__C                        
20019648  ti_sysbios_knl_Semaphore_Module__root__V                             
000173f4  ti_sysbios_knl_Semaphore_Object__DESC__C                             
00017310  ti_sysbios_knl_Semaphore_Object__PARAMS__C                           
00013685  ti_sysbios_knl_Semaphore_Object__delete__S                           
00013921  ti_sysbios_knl_Semaphore_Object__destruct__S                         
200190bc  ti_sysbios_knl_Semaphore_Object__table__V                            
00014711  ti_sysbios_knl_Semaphore_Params__init__S                             
00012be9  ti_sysbios_knl_Semaphore_construct                                   
000126d5  ti_sysbios_knl_Semaphore_create                                      
0000c7a5  ti_sysbios_knl_Semaphore_delete                                      
0000c9ed  ti_sysbios_knl_Semaphore_destruct                                    
00012971  ti_sysbios_knl_Semaphore_pendTimeout__I                              
00002791  ti_sysbios_knl_Semaphore_pend__E                                     
000066a9  ti_sysbios_knl_Semaphore_post__E                                     
00014379  ti_sysbios_knl_Semaphore_reset__E                                    
000176ac  ti_sysbios_knl_Swi_A_badPriority__C                                  
00013d0f  ti_sysbios_knl_Swi_Handle__label__S                                  
00010659  ti_sysbios_knl_Swi_Instance_finalize__E                              
0000a551  ti_sysbios_knl_Swi_Instance_init__E                                  
000176b0  ti_sysbios_knl_Swi_LD_end__C                                         
000176b4  ti_sysbios_knl_Swi_LM_begin__C                                       
000176b8  ti_sysbios_knl_Swi_LM_post__C                                        
20018f5c  ti_sysbios_knl_Swi_Module_State_0_readyQ__A                          
000176bc  ti_sysbios_knl_Swi_Module__diagsEnabled__C                           
000176c0  ti_sysbios_knl_Swi_Module__diagsIncluded__C                          
000176c4  ti_sysbios_knl_Swi_Module__diagsMask__C                              
0001783a  ti_sysbios_knl_Swi_Module__id__C                                     
0001783c  ti_sysbios_knl_Swi_Module__loggerDefined__C                          
000176c8  ti_sysbios_knl_Swi_Module__loggerFxn1__C                             
000176cc  ti_sysbios_knl_Swi_Module__loggerFxn4__C                             
000176d0  ti_sysbios_knl_Swi_Module__loggerObj__C                              
20019650  ti_sysbios_knl_Swi_Module__root__V                                   
200194ac  ti_sysbios_knl_Swi_Module__state__V                                  
00013279  ti_sysbios_knl_Swi_Module_startup__E                                 
00017414  ti_sysbios_knl_Swi_Object__DESC__C                                   
00017208  ti_sysbios_knl_Swi_Object__PARAMS__C                                 
000176d4  ti_sysbios_knl_Swi_Object__count__C                                  
00013941  ti_sysbios_knl_Swi_Object__delete__S                                 
00014281  ti_sysbios_knl_Swi_Object__get__S                                    
20019364  ti_sysbios_knl_Swi_Object__table__V                                  
0000fe69  ti_sysbios_knl_Swi_create                                            
0000d41d  ti_sysbios_knl_Swi_delete                                            
000144a1  ti_sysbios_knl_Swi_disable__E                                        
0000bc79  ti_sysbios_knl_Swi_post__E                                           
0000ed39  ti_sysbios_knl_Swi_restoreHwi__E                                     
00010c51  ti_sysbios_knl_Swi_runLoop__I                                        
000078b1  ti_sysbios_knl_Swi_run__I                                            
0000fec9  ti_sysbios_knl_Swi_schedule__I                                       
00011fc9  ti_sysbios_knl_Swi_startup__E                                        
000176d8  ti_sysbios_knl_Task_A_badPriority__C                                 
000176dc  ti_sysbios_knl_Task_A_badTaskState__C                                
000176e0  ti_sysbios_knl_Task_A_badThreadType__C                               
000176e4  ti_sysbios_knl_Task_A_badTimeout__C                                  
000176e8  ti_sysbios_knl_Task_A_noPendElem__C                                  
000176ec  ti_sysbios_knl_Task_A_sleepTaskDisabled__C                           
000176f0  ti_sysbios_knl_Task_E_deleteNotAllowed__C                            
000176f4  ti_sysbios_knl_Task_E_spOutOfBounds__C                               
000176f8  ti_sysbios_knl_Task_E_stackOverflow__C                               
00013d29  ti_sysbios_knl_Task_Handle__label__S                                 
20018a64  ti_sysbios_knl_Task_Instance_State_0_hookEnv__A                      
20014c00  ti_sysbios_knl_Task_Instance_State_0_stack__A                        
20018a6c  ti_sysbios_knl_Task_Instance_State_1_hookEnv__A                      
20014e00  ti_sysbios_knl_Task_Instance_State_1_stack__A                        
20018a74  ti_sysbios_knl_Task_Instance_State_2_hookEnv__A                      
20015000  ti_sysbios_knl_Task_Instance_State_2_stack__A                        
20018a7c  ti_sysbios_knl_Task_Instance_State_3_hookEnv__A                      
20015200  ti_sysbios_knl_Task_Instance_State_3_stack__A                        
20018a84  ti_sysbios_knl_Task_Instance_State_4_hookEnv__A                      
20015800  ti_sysbios_knl_Task_Instance_State_4_stack__A                        
00002a81  ti_sysbios_knl_Task_Instance_finalize__E                             
00004529  ti_sysbios_knl_Task_Instance_init__E                                 
000176fc  ti_sysbios_knl_Task_LD_block__C                                      
00017700  ti_sysbios_knl_Task_LD_exit__C                                       
00017704  ti_sysbios_knl_Task_LD_ready__C                                      
00017708  ti_sysbios_knl_Task_LM_setPri__C                                     
0001770c  ti_sysbios_knl_Task_LM_sleep__C                                      
00017710  ti_sysbios_knl_Task_LM_switch__C                                     
200196c8  ti_sysbios_knl_Task_Module_State_0_idleTask__A                       
20018fdc  ti_sysbios_knl_Task_Module_State_0_readyQ__A                         
00017714  ti_sysbios_knl_Task_Module_State_inactiveQ__O                        
00017718  ti_sysbios_knl_Task_Module_State_terminatedQ__O                      
0001771c  ti_sysbios_knl_Task_Module__diagsEnabled__C                          
00017720  ti_sysbios_knl_Task_Module__diagsIncluded__C                         
00017724  ti_sysbios_knl_Task_Module__diagsMask__C                             
0001783e  ti_sysbios_knl_Task_Module__id__C                                    
00017840  ti_sysbios_knl_Task_Module__loggerDefined__C                         
00017728  ti_sysbios_knl_Task_Module__loggerFxn2__C                            
0001772c  ti_sysbios_knl_Task_Module__loggerFxn4__C                            
00017730  ti_sysbios_knl_Task_Module__loggerObj__C                             
20019580  ti_sysbios_knl_Task_Module__root__V                                  
2001915c  ti_sysbios_knl_Task_Module__state__V                                 
0000c9f1  ti_sysbios_knl_Task_Module_startup__E                                
00017434  ti_sysbios_knl_Task_Object__DESC__C                                  
000170e4  ti_sysbios_knl_Task_Object__PARAMS__C                                
00017734  ti_sysbios_knl_Task_Object__count__C                                 
00013961  ti_sysbios_knl_Task_Object__delete__S                                
00014295  ti_sysbios_knl_Task_Object__first__S                                 
000142a9  ti_sysbios_knl_Task_Object__get__S                                   
00017738  ti_sysbios_knl_Task_Object__heap__C                                  
000142bd  ti_sysbios_knl_Task_Object__next__S                                  
20018ad8  ti_sysbios_knl_Task_Object__table__V                                 
0001471d  ti_sysbios_knl_Task_Params__init__S                                  
0000b7a5  ti_sysbios_knl_Task_SupportProxy_Module__startupDone__S              
000146c1  ti_sysbios_knl_Task_SupportProxy_checkStack__E                       
000146d1  ti_sysbios_knl_Task_SupportProxy_getStackAlignment__E                
00012b29  ti_sysbios_knl_Task_SupportProxy_start__E                            
00013fa9  ti_sysbios_knl_Task_SupportProxy_swap__E                             
0001773c  ti_sysbios_knl_Task_allBlockedFunc__C                                
00010ca1  ti_sysbios_knl_Task_allBlockedFunction__I                            
0000be79  ti_sysbios_knl_Task_blockI__E                                        
0000b7a9  ti_sysbios_knl_Task_checkStacks__E                                   
0000ff25  ti_sysbios_knl_Task_create                                           
00017740  ti_sysbios_knl_Task_defaultStackHeap__C                              
00017744  ti_sysbios_knl_Task_defaultStackSize__C                              
0000eda5  ti_sysbios_knl_Task_delete                                           
000112a1  ti_sysbios_knl_Task_deleteTerminatedTasksFunc__I                     
000144b1  ti_sysbios_knl_Task_disable__E                                       
00013bb1  ti_sysbios_knl_Task_enter__I                                         
00008479  ti_sysbios_knl_Task_exit__E                                          
000147f9  ti_sysbios_knl_Task_getHookContext__E                                
00014729  ti_sysbios_knl_Task_getIdleTask__E                                   
000171b0  ti_sysbios_knl_Task_hooks__A                                         
0001756c  ti_sysbios_knl_Task_hooks__C                                         
00017748  ti_sysbios_knl_Task_numConstructedTasks__C                           
00008d89  ti_sysbios_knl_Task_postInit__I                                      
000122a9  ti_sysbios_knl_Task_processVitalTaskFlag__I                          
00012f19  ti_sysbios_knl_Task_restore__E                                       
00008049  ti_sysbios_knl_Task_schedule__I                                      
00014739  ti_sysbios_knl_Task_self__E                                          
00014801  ti_sysbios_knl_Task_setHookContext__E                                
000054a1  ti_sysbios_knl_Task_setPri__E                                        
00013d49  ti_sysbios_knl_Task_sleepTimeout__I                                  
00003f39  ti_sysbios_knl_Task_sleep__E                                         
00008e89  ti_sysbios_knl_Task_startCore__E                                     
00014869  ti_sysbios_knl_Task_startup__E                                       
00013fb5  ti_sysbios_knl_Task_swapReturn                                       
0000b581  ti_sysbios_knl_Task_unblockI__E                                      
0001774c  ti_sysbios_utils_Load_LS_cpuLoad__C                                  
00017750  ti_sysbios_utils_Load_LS_taskLoad__C                                 
200196cc  ti_sysbios_utils_Load_Module_State_0_runningTask__A                  
20018e50  ti_sysbios_utils_Load_Module_State_0_taskEnv__A                      
200196d0  ti_sysbios_utils_Load_Module_State_0_taskStartTime__A                
00017754  ti_sysbios_utils_Load_Module_State_taskList__O                       
00017758  ti_sysbios_utils_Load_Module__diagsEnabled__C                        
0001775c  ti_sysbios_utils_Load_Module__diagsIncluded__C                       
00017760  ti_sysbios_utils_Load_Module__diagsMask__C                           
00017842  ti_sysbios_utils_Load_Module__id__C                                  
00017844  ti_sysbios_utils_Load_Module__loggerDefined__C                       
00017764  ti_sysbios_utils_Load_Module__loggerFxn1__C                          
00017768  ti_sysbios_utils_Load_Module__loggerFxn4__C                          
0001776c  ti_sysbios_utils_Load_Module__loggerObj__C                           
20018db8  ti_sysbios_utils_Load_Module__state__V                               
0000f299  ti_sysbios_utils_Load_addTask__E                                     
00017846  ti_sysbios_utils_Load_autoAddTasks__C                                
0000b911  ti_sysbios_utils_Load_idleFxn__E                                     
0000fb79  ti_sysbios_utils_Load_logCPULoad__I                                  
0000af99  ti_sysbios_utils_Load_logLoads__I                                    
00017770  ti_sysbios_utils_Load_postUpdate__C                                  
00011819  ti_sysbios_utils_Load_removeTask__E                                  
0000ca81  ti_sysbios_utils_Load_startup__E                                     
0000eda9  ti_sysbios_utils_Load_taskCreateHook__E                              
000112e9  ti_sysbios_utils_Load_taskDeleteHook__E                              
00014749  ti_sysbios_utils_Load_taskRegHook__E                                 
000106b1  ti_sysbios_utils_Load_taskSwitchHook__E                              
0000fbd9  ti_sysbios_utils_Load_updateCurrentThreadTime__E                     
00017848  ti_sysbios_utils_Load_updateInIdle__C                                
0000b9c1  ti_sysbios_utils_Load_updateLoads__E                                 
00009271  ti_sysbios_utils_Load_updateThreadContexts__E                        
0000b9c1  ti_sysbios_utils_Load_update__E                                      
00017774  ti_sysbios_utils_Load_windowInMs__C                                  
00013d63  ti_uia_loggers_LoggerStopMode_Handle__label__S                       
20018880  ti_uia_loggers_LoggerStopMode_Instance_State_0_hdr__A                
20011c00  ti_uia_loggers_LoggerStopMode_Instance_State_0_packetArray__A        
20018900  ti_uia_loggers_LoggerStopMode_Instance_State_1_hdr__A                
20017a00  ti_uia_loggers_LoggerStopMode_Instance_State_1_packetArray__A        
20018980  ti_uia_loggers_LoggerStopMode_Instance_State_2_hdr__A                
20012c00  ti_uia_loggers_LoggerStopMode_Instance_State_2_packetArray__A        
00013bcd  ti_uia_loggers_LoggerStopMode_Instance_init__E                       
00016f18  ti_uia_loggers_LoggerStopMode_Module__FXNS__C                        
00017778  ti_uia_loggers_LoggerStopMode_Module__diagsEnabled__C                
0001777c  ti_uia_loggers_LoggerStopMode_Module__diagsIncluded__C               
00017780  ti_uia_loggers_LoggerStopMode_Module__diagsMask__C                   
0001784a  ti_uia_loggers_LoggerStopMode_Module__id__C                          
20019658  ti_uia_loggers_LoggerStopMode_Module__root__V                        
00010ced  ti_uia_loggers_LoggerStopMode_Module_startup__E                      
00017454  ti_uia_loggers_LoggerStopMode_Object__DESC__C                        
00017230  ti_uia_loggers_LoggerStopMode_Object__PARAMS__C                      
00017784  ti_uia_loggers_LoggerStopMode_Object__count__C                       
00012c19  ti_uia_loggers_LoggerStopMode_Object__create__S                      
00013981  ti_uia_loggers_LoggerStopMode_Object__delete__S                      
000144c1  ti_uia_loggers_LoggerStopMode_Object__get__S                         
20018d1c  ti_uia_loggers_LoggerStopMode_Object__table__V                       
000140bd  ti_uia_loggers_LoggerStopMode_disable__E                             
000140d3  ti_uia_loggers_LoggerStopMode_enable__E                              
0000f301  ti_uia_loggers_LoggerStopMode_flush__E                               
0000fab5  ti_uia_loggers_LoggerStopMode_getContents__E                         
0000fec5  ti_uia_loggers_LoggerStopMode_getFilterLevel__E                      
000106ad  ti_uia_loggers_LoggerStopMode_getInstanceId__E                       
0001098d  ti_uia_loggers_LoggerStopMode_getMaxLength__E                        
00010c4d  ti_uia_loggers_LoggerStopMode_getPriority__E                         
00010c9d  ti_uia_loggers_LoggerStopMode_getTransferType__E                     
0001185d  ti_uia_loggers_LoggerStopMode_initBuffer__I                          
0000cb11  ti_uia_loggers_LoggerStopMode_initQueueDescriptor__E                 
000144d1  ti_uia_loggers_LoggerStopMode_isEmpty__E                             
0001784c  ti_uia_loggers_LoggerStopMode_isTimestampEnabled__C                  
00012709  ti_uia_loggers_LoggerStopMode_reset__E                               
0000e8f3  ti_uia_loggers_LoggerStopMode_setFilterLevel__E                      
0000ea3f  ti_uia_loggers_LoggerStopMode_setPriority__E                         
0000a041  ti_uia_loggers_LoggerStopMode_write0__E                              
00009a11  ti_uia_loggers_LoggerStopMode_write1__E                              
00009921  ti_uia_loggers_LoggerStopMode_write2__E                              
00008f85  ti_uia_loggers_LoggerStopMode_write4__E                              
00007d11  ti_uia_loggers_LoggerStopMode_write8__E                              
00006f59  ti_uia_loggers_LoggerStopMode_writeMemoryRange__E                    
00017788  ti_uia_runtime_ILoggerSnapshot_Interface__BASE__C                    
0001778c  ti_uia_runtime_IUIATransfer_Interface__BASE__C                       
2001958c  ti_uia_runtime_QueueDescriptor_Module__state__V                      
0000e4fd  ti_uia_runtime_QueueDescriptor_addToList__E                          
20019608  ti_uia_runtime_QueueDescriptor_gPtrToFirstDescriptor                 
2001960c  ti_uia_runtime_QueueDescriptor_gUpdateCount                          
20018874  tpseudo                                                              
00012f45  uDMAChannelAssign                                                    
00011331  uDMAChannelAttributeDisable                                          
00011379  uDMAChannelAttributeEnable                                           
000136a9  uDMAChannelControlSet                                                
00013fd9  uDMAChannelEnable                                                    
000132a1  uDMAChannelModeGet                                                   
0000d4a5  uDMAChannelTransferSet                                               
00014755  uDMAControlBaseSet                                                   
000144e1  uDMADisable                                                          
000144f1  uDMAEnable                                                           
20013c00  udmaCtrlTable                                                        
20018930  udps                                                                 
20018a50  upseudo                                                              
200188b0  vlan_mcb                                                             
00017790  xdc_runtime_Assert_E_assertFailed__C                                 
00010705  xdc_runtime_Assert_raise__I                                          
00017794  xdc_runtime_Core_A_initializedParams__C                              
00017798  xdc_runtime_Core_Module__diagsEnabled__C                             
0001779c  xdc_runtime_Core_Module__diagsIncluded__C                            
000177a0  xdc_runtime_Core_Module__diagsMask__C                                
0001784e  xdc_runtime_Core_Module__id__C                                       
0001273d  xdc_runtime_Core_assignLabel__I                                      
000114d9  xdc_runtime_Core_assignParams__I                                     
0000aa29  xdc_runtime_Core_constructObject__I                                  
00008b8d  xdc_runtime_Core_createObject__I                                     
0000f367  xdc_runtime_Core_deleteObject__I                                     
000177a4  xdc_runtime_Error_E_memory__C                                        
000177a8  xdc_runtime_Error_Module__diagsEnabled__C                            
000177ac  xdc_runtime_Error_Module__diagsIncluded__C                           
000177b0  xdc_runtime_Error_Module__diagsMask__C                               
00017850  xdc_runtime_Error_Module__loggerDefined__C                           
000177b4  xdc_runtime_Error_Module__loggerFxn8__C                              
000177b8  xdc_runtime_Error_Module__loggerObj__C                               
20019332  xdc_runtime_Error_Module__state__V                                   
00013ff1  xdc_runtime_Error_check__E                                           
000111c5  xdc_runtime_Error_getMsg__E                                          
00011785  xdc_runtime_Error_getSite__E                                         
00014761  xdc_runtime_Error_init__E                                            
00017852  xdc_runtime_Error_maxDepth__C                                        
00007ae5  xdc_runtime_Error_policyDefault__E                                   
000177bc  xdc_runtime_Error_policyFxn__C                                       
000168e9  xdc_runtime_Error_policy__C                                          
0000ee15  xdc_runtime_Error_print__E                                           
000177c0  xdc_runtime_Error_raiseHook__C                                       
00013be9  xdc_runtime_Error_raiseX__E                                          
000118a1  xdc_runtime_Error_setX__E                                            
0001476d  xdc_runtime_Gate_enterSystem__E                                      
00014501  xdc_runtime_Gate_leaveSystem__E                                      
000177c4  xdc_runtime_IFilterLogger_Interface__BASE__C                         
000177c8  xdc_runtime_IGateProvider_Interface__BASE__C                         
000177cc  xdc_runtime_IHeap_Interface__BASE__C                                 
000177d0  xdc_runtime_ILogger_Interface__BASE__C                               
000177d4  xdc_runtime_IModule_Interface__BASE__C                               
000177d8  xdc_runtime_Log_L_error__C                                           
00013cc1  xdc_runtime_Main_Module_GateProxy_Handle__label__S                   
000138c1  xdc_runtime_Main_Module_GateProxy_Object__delete__S                  
00014859  xdc_runtime_Main_Module_GateProxy_query__E                           
00013cf5  xdc_runtime_Memory_HeapProxy_Handle__label__S                        
000138e1  xdc_runtime_Memory_HeapProxy_Object__delete__S                       
000147a5  xdc_runtime_Memory_HeapProxy_alloc__E                                
000147af  xdc_runtime_Memory_HeapProxy_free__E                                 
00017854  xdc_runtime_Memory_Module__id__C                                     
200196d4  xdc_runtime_Memory_Module__state__V                                  
0000ee81  xdc_runtime_Memory_alloc__E                                          
00014779  xdc_runtime_Memory_calloc__E                                         
000177dc  xdc_runtime_Memory_defaultHeapInstance__C                            
00014511  xdc_runtime_Memory_free__E                                           
00014785  xdc_runtime_Memory_getMaxDefaultTypeAlign__E                         
00013c05  xdc_runtime_Memory_valloc__E                                         
20019660  xdc_runtime_Registry_Module__state__V                                
000139a1  xdc_runtime_Registry_findById__E                                     
20019668  xdc_runtime_Startup_Module__state__V                                 
00000001  xdc_runtime_Startup__EXECFXN__C                                      
00000001  xdc_runtime_Startup__RESETFXN__C                                     
000177e0  xdc_runtime_Startup_execImpl__C                                      
000109e1  xdc_runtime_Startup_exec__E                                          
0001438b  xdc_runtime_Startup_exec__I                                          
00017500  xdc_runtime_Startup_firstFxns__A                                     
00017574  xdc_runtime_Startup_firstFxns__C                                     
000177e4  xdc_runtime_Startup_lastFxns__A                                      
0001757c  xdc_runtime_Startup_lastFxns__C                                      
000177e8  xdc_runtime_Startup_maxPasses__C                                     
0000eaaf  xdc_runtime_Startup_reset__I                                         
00017514  xdc_runtime_Startup_sfxnRts__A                                       
000177ec  xdc_runtime_Startup_sfxnRts__C                                       
00017258  xdc_runtime_Startup_sfxnTab__A                                       
000177f0  xdc_runtime_Startup_sfxnTab__C                                       
00009369  xdc_runtime_Startup_startMods__I                                     
2001869c  xdc_runtime_SysMin_Module_State_0_outbuf__A                          
20019598  xdc_runtime_SysMin_Module__state__V                                  
000139c1  xdc_runtime_SysMin_Module_startup__E                                 
00012c49  xdc_runtime_SysMin_abort__E                                          
000177f4  xdc_runtime_SysMin_bufSize__C                                        
00013c21  xdc_runtime_SysMin_exit__E                                           
00017856  xdc_runtime_SysMin_flushAtExit__C                                    
000118e5  xdc_runtime_SysMin_flush__E                                          
000177f8  xdc_runtime_SysMin_outputFunc__C                                     
0001377b  xdc_runtime_SysMin_output__I                                         
000122e1  xdc_runtime_SysMin_putch__E                                          
00014521  xdc_runtime_SysMin_ready__E                                          
00013cc1  xdc_runtime_System_Module_GateProxy_Handle__label__S                 
000138c1  xdc_runtime_System_Module_GateProxy_Object__delete__S                
000117cd  xdc_runtime_System_Module_GateProxy_enter__E                         
00011815  xdc_runtime_System_Module_GateProxy_leave__E                         
00014859  xdc_runtime_System_Module_GateProxy_query__E                         
20019670  xdc_runtime_System_Module_State_0_atexitHandlers__A                  
000177fc  xdc_runtime_System_Module__gateObj__C                                
20019678  xdc_runtime_System_Module__state__V                                  
00014847  xdc_runtime_System_Module_startup__E                                 
00012c49  xdc_runtime_System_SupportProxy_abort__E                             
00013c21  xdc_runtime_System_SupportProxy_exit__E                              
000118e5  xdc_runtime_System_SupportProxy_flush__E                             
000122e1  xdc_runtime_System_SupportProxy_putch__E                             
00014521  xdc_runtime_System_SupportProxy_ready__E                             
00017800  xdc_runtime_System_abortFxn__C                                       
00010609  xdc_runtime_System_abortStd__E                                       
00013c3d  xdc_runtime_System_abort__E                                          
00013d7d  xdc_runtime_System_aprintf__E                                        
00011b75  xdc_runtime_System_aprintf_va__F                                     
00012319  xdc_runtime_System_atexit__E                                         
000133ad  xdc_runtime_System_avprintf__E                                       
0000211d  xdc_runtime_System_doPrint__I                                        
00017804  xdc_runtime_System_exitFxn__C                                        
00010611  xdc_runtime_System_exitStd__E                                        
00014009  xdc_runtime_System_exit__E                                           
00017808  xdc_runtime_System_extendFxn__C                                      
0000ea41  xdc_runtime_System_formatNum__I                                      
0001780c  xdc_runtime_System_maxAtexitHandlers__C                              
00009461  xdc_runtime_System_printfExtend__I                                   
00013d97  xdc_runtime_System_printf__E                                         
00011f85  xdc_runtime_System_printf_va__F                                      
00012c79  xdc_runtime_System_processAtExit__E                                  
00013045  xdc_runtime_System_putchar__I                                        
000136cd  xdc_runtime_System_vprintf__E                                        
00014531  xdc_runtime_System_vsnprintf__E                                      
000140e9  xdc_runtime_System_vsprintf__E                                       
00017858  xdc_runtime_Text_charCnt__C                                          
00014874  xdc_runtime_Text_charTab__A                                          
00017810  xdc_runtime_Text_charTab__C                                          
00012f71  xdc_runtime_Text_cordText__E                                         
0001785a  xdc_runtime_Text_isLoaded__C                                         
00017814  xdc_runtime_Text_nameEmpty__C                                        
00017818  xdc_runtime_Text_nameStatic__C                                       
0001781c  xdc_runtime_Text_nameUnknown__C                                      
00016b2c  xdc_runtime_Text_nodeTab__A                                          
00017820  xdc_runtime_Text_nodeTab__C                                          
00012771  xdc_runtime_Text_printVisFxn__I                                      
0000ff81  xdc_runtime_Text_putLab__E                                           
0000c061  xdc_runtime_Text_putMod__E                                           
0000c415  xdc_runtime_Text_putSite__E                                          
0001785c  xdc_runtime_Text_registryModsLastId__C                               
00014021  xdc_runtime_Text_ropeText__E                                         
0001785e  xdc_runtime_Text_unnamedModsLastId__C                                
00010a31  xdc_runtime_Text_visitRope2__I                                       
00017824  xdc_runtime_Text_visitRopeFxn__C                                     
00014541  xdc_runtime_Text_visitRope__I                                        
00011929  xdc_runtime_Text_xprintf__I                                          
0000a2d1  xdc_runtime_Timestamp_SupportProxy_get32__E                          
00005629  xdc_runtime_Timestamp_SupportProxy_get64__E                          
00014431  xdc_runtime_Timestamp_SupportProxy_getFreq__E                        


GLOBAL SYMBOLS: SORTED BY Symbol Address 

address   name                                                                 
-------   ----                                                                 
00000000  __ASM__                                                              
00000000  ti_sysbios_family_arm_m3_Hwi_resetVectors                            
00000001  xdc_runtime_Startup__EXECFXN__C                                      
00000001  xdc_runtime_Startup__RESETFXN__C                                     
00000041  TcpInput                                                             
0000006f  __ISA__                                                              
00000082  __PLAT__                                                             
000000a3  __TARG__                                                             
000000c9  __TRDR__                                                             
00000800  __STACK_SIZE                                                         
00000ca9  TcpOutput                                                            
00001561  ti_sysbios_family_arm_m3_Hwi_excDumpRegs__I                          
00001991  IPTxPacket                                                           
00001d99  IPRxPacket                                                           
0000211d  xdc_runtime_System_doPrint__I                                        
00002469  HOSTwrite                                                            
000024b5  HOSTunlink                                                           
000024ed  HOSTtime64                                                           
0000253b  HOSTtime                                                             
00002575  HOSTrename                                                           
000025d3  HOSTread                                                             
0000261f  HOSTopen                                                             
00002671  HOSTlseek                                                            
000026cd  HOSTgetenv                                                           
0000270b  HOSTclose                                                            
00002743  HOSTclock                                                            
0000278d  ADCIntClearEx                                                        
00002791  ti_sysbios_knl_Semaphore_pend__E                                     
00002a7d  BindGetIF                                                            
00002a81  ti_sysbios_knl_Task_Instance_finalize__E                             
00002d41  SockSet                                                              
00002fc5  BindGetNext                                                          
00002fc9  ti_sysbios_heaps_HeapMem_free__E                                     
00003221  IPReasm                                                              
0000346d  NDK_vsprintf                                                         
00003471  ti_sysbios_heaps_HeapMem_alloc__E                                    
000036b9  ICMPInput                                                            
000038f5  UdpInput                                                             
00003b2d  SysCtlClockFreqSet                                                   
00003d31  ti_catalog_arm_cortexm4_tiva_ce_Boot_sysCtlClockFreqSetI__I          
00003f35  NodeSetRt                                                            
00003f39  TaskSleep                                                            
00003f39  ti_sysbios_knl_Task_sleep__E                                         
00004139  ti_sysbios_family_arm_m3_Hwi_excHandlerMax__I                        
00004335  SockRecv                                                             
00004529  ti_sysbios_knl_Task_Instance_init__E                                 
0000471d  tcpHandler                                                           
00004905  RawEthSockPrAttach                                                   
00004909  ti_sysbios_family_arm_lm4_Timer_start__E                             
00004ac5  EMACSnow_NIMUInit                                                    
00004c7d  LLITxIpPacket                                                        
00004e2d  LLIRxPacket                                                          
00004fd9  mmAlloc                                                              
00005175  IGMPInput                                                            
0000530d  SockNew                                                              
0000549d  RawEthSockPrDetach                                                   
000054a1  ti_sysbios_knl_Task_setPri__E                                        
00005629  ti_sysbios_family_arm_lm4_TimestampProvider_get64__E                 
00005629  xdc_runtime_Timestamp_SupportProxy_get64__E                          
000057a5  NC_NetStart                                                          
00005919  ti_sysbios_family_arm_m3_Hwi_excBusFault__I                          
00005a8d  RTCReport                                                            
00005bfd  SBRead                                                               
00005d67  LED_TOGGLE                                                           
00005d69  ti_sysbios_family_arm_m3_Hwi_excUsageFault__I                        
00005ecd  SockConnect                                                          
0000602d  DHCPOpen                                                             
00006185  GPIO_setConfig                                                       
000062d5  SemPend                                                              
000062d9  ti_sysbios_family_arm_m3_Hwi_excMemFault__I                          
00006421  BindNew                                                              
00006565  TcpTimeoutCheck                                                      
000066a5  SemPost                                                              
000066a9  ti_sysbios_knl_Semaphore_post__E                                     
000067e9  CfgAddEntry                                                          
00006925  SockNotify                                                           
00006a61  SockSend                                                             
00006b9d  SemReset                                                             
00006ba1  ti_sysbios_heaps_HeapMem_Instance_init__E                            
00006cdd  TaskSelf                                                             
00006ce1  ti_sysbios_knl_Clock_workFunc__E                                     
00006e1d  TaskSetPri                                                           
00006e21  ti_sysbios_family_arm_m3_Hwi_dispatchC__I                            
00006f59  ti_uia_loggers_LoggerStopMode_writeMemoryRange__E                    
00007091  ICMPGenPacket                                                        
000071c5  GPIOPadConfigSet                                                     
000072f5  EK_TM4C1294XL_initEMAC                                               
00007421  SockPcbResolve                                                       
00007545  UdpOutput                                                            
00007669  ti_ndk_config_Global_stackThread                                     
0000778d  TimerADCEventSet                                                     
00007791  ti_sysbios_knl_Clock_Instance_init__E                                
000078ad  _llSerialInit                                                        
000078b1  ti_sysbios_knl_Swi_run__I                                            
000079cd  TcpGenPacket                                                         
00007ae5  xdc_runtime_Error_policyDefault__E                                   
00007bfd  NIMUIoctl                                                            
00007d11  ti_uia_loggers_LoggerStopMode_write8__E                              
00007e25  NodeTreeFree                                                         
00007f35  RawInput                                                             
00008045  list_get_head                                                        
00008049  ti_sysbios_knl_Task_schedule__I                                      
00008159  RtFind                                                               
00008265  RtCreate                                                             
0000836f  NatMsg                                                               
00008371  EMACSnow_emacStart                                                   
00008479  TaskExit                                                             
00008479  ti_sysbios_knl_Task_exit__E                                          
00008581  llEnter                                                              
00008685  rmsCalc_Task                                                         
00008789  dhcpPacketProcess                                                    
0000888b  inet_aton                                                            
00008a8d  adcPinConfig                                                         
00008b8d  xdc_runtime_Core_createObject__I                                     
00008d89  ti_sysbios_knl_Task_postInit__I                                      
00008e85  list_get_next                                                        
00008e89  ti_sysbios_knl_Task_startCore__E                                     
00008f85  ti_uia_loggers_LoggerStopMode_write4__E                              
00009081  ADC_init                                                             
00009179  PipeRecv                                                             
00009271  ti_sysbios_utils_Load_updateThreadContexts__E                        
00009369  xdc_runtime_Startup_startMods__I                                     
00009461  xdc_runtime_System_printfExtend__I                                   
00009559  TaskGetEnv                                                           
0000964d  ti_sysbios_family_arm_m3_Hwi_dispatch__I                             
00009741  LLIGenArpPacket                                                      
00009831  SockClose                                                            
00009921  ti_uia_loggers_LoggerStopMode_write2__E                              
00009a11  ti_uia_loggers_LoggerStopMode_write1__E                              
00009afd  DMA_init                                                             
00009be5  TaskSetEnv                                                           
00009ccd  TcpTimeoutRexmt                                                      
00009dad  SBWrite                                                              
00009e89  dhcpSocketOpen                                                       
00009f65  dhcpState                                                            
0000a041  ti_uia_loggers_LoggerStopMode_write0__E                              
0000a11d  NodeAdd                                                              
0000a1f5  TcpPrSetOption                                                       
0000a2d1  ti_sysbios_family_arm_lm4_TimestampProvider_get32__E                 
0000a2d1  xdc_runtime_Timestamp_SupportProxy_get32__E                          
0000a47d  SockPcbBind                                                          
0000a551  ti_sysbios_knl_Swi_Instance_init__E                                  
0000a625  NIMUReceivePacket                                                    
0000a6f7  _TaskInit                                                            
0000a6f9  ICMPSendRtAdv                                                        
0000a95d  dhcpVerifyMessage                                                    
0000aa29  xdc_runtime_Core_constructObject__I                                  
0000aaf5  RawEthSockNew                                                        
0000ac85  tcpWorker                                                            
0000ad4d  EMACSnow_InitDMADescriptors                                          
0000af99  ti_sysbios_utils_Load_logLoads__I                                    
0000b119  VLANDeinit                                                           
0000b1d5  ti_sysbios_BIOS_RtsGateProxy_enter__E                                
0000b1d9  ti_sysbios_family_arm_m3_Hwi_excDebugMon__I                          
0000b295  ti_sysbios_BIOS_RtsGateProxy_leave__E                                
0000b299  ti_sysbios_family_arm_m3_Hwi_excHardFault__I                         
0000b355  EK_TM4C1294XL_initGeneral                                            
0000b4c5  _LLITimeoutCheck                                                     
0000b57d  ti_sysbios_family_arm_lm4_Timer_masterEnable__I                      
0000b581  ti_sysbios_knl_Task_unblockI__E                                      
0000b639  TcpTimeoutKeep                                                       
0000b6ed  ti_sysbios_family_arm_m3_Hwi_delete                                  
0000b6f1  ti_sysbios_gates_GateMutex_enter__E                                  
0000b7a5  ti_sysbios_family_arm_m3_TaskSupport_Module__startupDone__S          
0000b7a5  ti_sysbios_knl_Task_SupportProxy_Module__startupDone__S              
0000b7a9  ti_sysbios_knl_Task_checkStacks__E                                   
0000b85d  RawEthSockSet                                                        
0000b90d  ti_sysbios_heaps_HeapMem_Module_GateProxy_enter__E                   
0000b911  ti_sysbios_utils_Load_idleFxn__E                                     
0000b9c1  ti_sysbios_utils_Load_updateLoads__E                                 
0000b9c1  ti_sysbios_utils_Load_update__E                                      
0000bb1d  ti_ndk_config_ip_init                                                
0000bbc9  ti_sysbios_family_arm_lm4_Timer_enableTiva__I                        
0000bc75  ti_sysbios_heaps_HeapMem_Module_GateProxy_leave__E                   
0000bc79  ti_sysbios_knl_Swi_post__E                                           
0000bd25  SockCreatePacket                                                     
0000bdcd  ti_sysbios_knl_Clock_TimerProxy_getMaxTicks__E                       
0000bdd1  ti_sysbios_family_arm_lm4_Timer_enableTimers__I                      
0000be79  ti_sysbios_knl_Task_blockI__E                                        
0000bf21  IPGetRoute                                                           
0000bfc1  __TI_auto_init                                                       
0000c061  xdc_runtime_Text_putMod__E                                           
0000c101  NIMUAddEthernetHeader                                                
0000c19f  dhcpBuildRequest                                                     
0000c23d  ExecOpen                                                             
0000c2d9  __aeabi_memcpy                                                       
0000c2d9  __aeabi_memcpy4                                                      
0000c2d9  __aeabi_memcpy8                                                      
0000c2d9  memcpy                                                               
0000c375  ti_sysbios_knl_Clock_TimerProxy_getPeriod__E                         
0000c379  ti_sysbios_knl_Semaphore_Instance_init__E                            
0000c415  xdc_runtime_Text_putSite__E                                          
0000c4af  _TaskShutdown                                                        
0000c4b1  NC_SystemOpen                                                        
0000c5e1  ti_catalog_arm_cortexm4_tiva_ce_Boot_sysCtlClockFreqSet__E           
0000c679  CfgRemoveEntry                                                       
0000c70d  ti_sysbios_knl_Queue_destruct                                        
0000c711  ti_sysbios_family_arm_m3_Hwi_Instance_init__E                        
0000c7a5  ti_sysbios_knl_Semaphore_delete                                      
0000c7a9  ti_sysbios_family_arm_m3_Hwi_initNVIC__E                             
0000c83d  CfgExecute                                                           
0000c8cd  IGMPMsg                                                              
0000c95d  mmBulkAlloc                                                          
0000c9ed  ti_sysbios_knl_Semaphore_destruct                                    
0000c9f1  ti_sysbios_knl_Task_Module_startup__E                                
0000ca81  ti_sysbios_utils_Load_startup__E                                     
0000cb11  ti_uia_loggers_LoggerStopMode_initQueueDescriptor__E                 
0000cba1  GPIO_init                                                            
0000cc2d  IPMsg                                                                
0000ccb9  _mmInit                                                              
0000cdd1  ti_sysbios_family_arm_m3_TaskSupport_buildTaskStack                  
0000cee7  _llSerialServiceCheck                                                
0000cf71  SockPcbCtlError                                                      
0000d07f  _llSerialShutdown                                                    
0000d081  ADC_Seq1_ISR                                                         
0000d105  CfgGetEntry                                                          
0000d189  EMACSnow_processPhyInterrupt                                         
0000d20d  TcpPrAttach                                                          
0000d291  arm_rms_f32                                                          
0000d315  mmBulkFree                                                           
0000d399  mmFree                                                               
0000d41d  ti_sysbios_knl_Swi_delete                                            
0000d421  ti_sysbios_family_arm_m3_Hwi_postInit__I                             
0000d4a5  uDMAChannelTransferSet                                               
0000d5ab  _llUserLedInit                                                       
0000d5ad  EMACSnow_emacStop                                                    
0000d6ad  LLINew                                                               
0000d72d  NS_BootTask                                                          
0000d7ad  PBM_alloc                                                            
0000d82d  RawOutput                                                            
0000d92d  fdClose                                                              
0000d9ab  _llUserLedShutdown                                                   
0000d9ad  ADC_Seq0_ISR                                                         
0000da29  CfgGetNextEntry                                                      
0000daa5  EMACSnow_hwiIntFxn                                                   
0000db9d  IGMPJoin                                                             
0000dc19  NDK_setsockopt                                                       
0000dc95  NIMURegister                                                         
0000dd11  PBM_free                                                             
0000dd8d  ADCSequenceStepConfigure                                             
0000de07  SockAccept                                                           
0000de81  __aeabi_memclr                                                       
0000de81  __aeabi_memclr4                                                      
0000de81  __aeabi_memclr8                                                      
0000de83  __aeabi_memset                                                       
0000de83  __aeabi_memset4                                                      
0000de83  __aeabi_memset8                                                      
0000de89  memset                                                               
0000defb  llSerialService                                                      
0000defd  EMACInit                                                             
0000df75  NDK_sendto                                                           
0000dfed  TcpXmitTimer                                                         
0000e065  fdOpenSession                                                        
0000e0dd  llExit                                                               
0000e155  PipeSend                                                             
0000e1cb  __aeabi_idiv0                                                        
0000e1cd  TcpTimeoutSackRexmt                                                  
0000e245  IGMPLeaveHostGroup                                                   
0000e2b9  NIMUShutdown                                                         
0000e32d  RawEthRxPacket                                                       
0000e3a1  SockPcbConnect                                                       
0000e415  netOpenHook                                                          
0000e489  ti_sysbios_knl_Clock_start__E                                        
0000e4fd  ti_uia_runtime_QueueDescriptor_addToList__E                          
0000e571  SemCreateBinary                                                      
0000e5e3  NDK_accept                                                           
0000e653  NDK_send                                                             
0000e6c3  ti_sysbios_BIOS_nullFunc__I                                          
0000e7a5  SockShutdown                                                         
0000e815  dhcpDecodeType                                                       
0000e885  NDK_recv                                                             
0000e8f3  ti_uia_loggers_LoggerStopMode_setFilterLevel__E                      
0000e8f5  RtWalkNext                                                           
0000ea3f  ti_uia_loggers_LoggerStopMode_setPriority__E                         
0000ea41  xdc_runtime_System_formatNum__I                                      
0000eaaf  xdc_runtime_Startup_reset__I                                         
0000eab1  DbgPrintf                                                            
0000eb1d  NodeTreeNew                                                          
0000eb89  RawEthTxPacket                                                       
0000ebf5  UdpChecksum                                                          
0000ec61  arm_offset_f32                                                       
0000eccd  arm_scale_f32                                                        
0000ed39  ti_sysbios_knl_Swi_restoreHwi__E                                     
0000eda5  ti_sysbios_knl_Task_delete                                           
0000eda9  ti_sysbios_utils_Load_taskCreateHook__E                              
0000ee15  xdc_runtime_Error_print__E                                           
0000ee81  xdc_runtime_Memory_alloc__E                                          
0000eeed  TcpPrInherit                                                         
0000ef59  IntEnable                                                            
0000efc1  NDK_socket                                                           
0000f029  PBM_open                                                             
0000f091  SockListen                                                           
0000f0f9  TIMER_ADC_init                                                       
0000f161  _RtNodeInsert                                                        
0000f1c9  __TI_decompress_lzss                                                 
0000f231  __TI_writemsg                                                        
0000f25f  C$$IO$$                                                              
0000f263  __TI_readmsg                                                         
0000f299  ti_sysbios_utils_Load_addTask__E                                     
0000f301  ti_uia_loggers_LoggerStopMode_flush__E                               
0000f367  xdc_runtime_Core_deleteObject__I                                     
0000f3cd  CfgFree                                                              
0000f431  GPIO_hwiIntFxn                                                       
0000f495  PBMQ_enq                                                             
0000f4f9  SockSpawnAbort                                                       
0000f55d  llTimerTick                                                          
0000f5c1  ti_sysbios_family_arm_lm4_Timer_Module_startup__E                    
0000f625  ti_sysbios_family_arm_m3_Hwi_create                                  
0000f751  SBNew                                                                
0000f7b5  CfgGetEntryCnt                                                       
0000f815  FdWaitEvent                                                          
0000f875  NIMUUnregister                                                       
0000f8d5  NodeFind                                                             
0000f935  RTCMsg                                                               
0000f995  TcpChecksum                                                          
0000f9f5  TimerConfigure                                                       
0000fa55  dhcpBuildOptions                                                     
0000fab5  ti_uia_loggers_LoggerStopMode_getContents__E                         
0000fab9  ti_sysbios_family_arm_lm4_Timer_isrStub__E                           
0000fb19  ti_sysbios_knl_Clock_logTick__E                                      
0000fb79  ti_sysbios_utils_Load_logCPULoad__I                                  
0000fbd9  ti_sysbios_utils_Load_updateCurrentThreadTime__E                     
0000fc39  RtRemove                                                             
0000fcf5  VLANReceivePacket                                                    
0000fd55  CfgSetExecuteOrder                                                   
0000fe69  ti_sysbios_knl_Swi_create                                            
0000fec5  ti_uia_loggers_LoggerStopMode_getFilterLevel__E                      
0000fec9  ti_sysbios_knl_Swi_schedule__I                                       
0000ff25  ti_sysbios_knl_Task_create                                           
0000ff81  xdc_runtime_Text_putLab__E                                           
0000ffdd  RtRedirect                                                           
00010037  TcpValidateMetrics                                                   
00010091  dhcpBuildDecline                                                     
000100eb  mmCopy                                                               
00010145  ti_ndk_config_tcp_init                                               
000101a1  BindFree                                                             
000101f9  _c_int00                                                             
00010251  EMACPHYConfigSet                                                     
00010301  SemCreate                                                            
00010359  TimerControlTrigger                                                  
000103b1  ti_sysbios_family_arm_m3_Hwi_initStacks__E                           
00010409  GPIOIntTypeSet                                                       
00010461  CfgEntryDeRef                                                        
000104b5  IGMPLeave                                                            
00010509  RawEthSockPcbAttach                                                  
0001055d  SockCleanPcb                                                         
000105b1  TcpTimeoutPersist                                                    
00010605  C$$EXIT                                                              
00010609  abort                                                                
00010609  xdc_runtime_System_abortStd__E                                       
00010611  exit                                                                 
00010611  xdc_runtime_System_exitStd__E                                        
00010659  ti_sysbios_knl_Swi_Instance_finalize__E                              
000106ad  ti_uia_loggers_LoggerStopMode_getInstanceId__E                       
000106b1  ti_sysbios_utils_Load_taskSwitchHook__E                              
00010705  xdc_runtime_Assert_raise__I                                          
00010759  TcpPrDetach                                                          
000107ad  GPIO_setCallback                                                     
000107fd  GPIO_toggle                                                          
0001084d  NDK_bind                                                             
000108ed  SysCtlPeripheralReset                                                
0001098d  ti_uia_loggers_LoggerStopMode_getMaxLength__E                        
00010991  ti_sysbios_family_arm_m3_Hwi_Module_startup__E                       
000109e1  xdc_runtime_Startup_exec__E                                          
00010a31  xdc_runtime_Text_visitRope2__I                                       
00010a81  NodeDeRef                                                            
00010b1d  NtAddNetwork                                                         
00010b69  SockValidateRoute                                                    
00010bb5  copy_in                                                              
00010c01  ti_sysbios_heaps_HeapMem_getStats__E                                 
00010c4d  ti_uia_loggers_LoggerStopMode_getPriority__E                         
00010c51  ti_sysbios_knl_Swi_runLoop__I                                        
00010c9d  ti_uia_loggers_LoggerStopMode_getTransferType__E                     
00010ca1  ti_sysbios_knl_Task_allBlockedFunction__I                            
00010ced  ti_uia_loggers_LoggerStopMode_Module_startup__E                      
00010d39  main                                                                 
00010dcf  SockDisconnect                                                       
00010e19  TimerNew                                                             
00010e63  CfgNew                                                               
00010ead  GPIOPinConfigure                                                     
00010ef5  LLIMsg                                                               
00010f3d  NodeWalk                                                             
00010f85  RawEthSockPcbDetach                                                  
00010fcd  SockPcbResolveChain                                                  
00011015  TcpDrop                                                              
0001105d  _LLIExpListInsert                                                    
000110a5  _RtExpListInsert                                                     
00011135  arm_copy_f32                                                         
0001117d  fdint_lockfd                                                         
000111c5  xdc_runtime_Error_getMsg__E                                          
000111c9  ti_sysbios_family_arm_m3_Hwi_disableInterrupt__E                     
000111c9  ti_sysbios_hal_Hwi_HwiProxy_disableInterrupt__E                      
00011211  ti_sysbios_family_arm_m3_Hwi_enableInterrupt__E                      
00011211  ti_sysbios_hal_Hwi_HwiProxy_enableInterrupt__E                       
00011259  ti_sysbios_family_arm_m3_Hwi_excReserved__I                          
000112a1  ti_sysbios_knl_Task_deleteTerminatedTasksFunc__I                     
000112e9  ti_sysbios_utils_Load_taskDeleteHook__E                              
00011331  uDMAChannelAttributeDisable                                          
00011379  uDMAChannelAttributeEnable                                           
000113c1  NtIfIdx2Ip                                                           
00011407  RawEthSockSend                                                       
0001144d  TcpPrCtlError                                                        
00011493  mmZeroInit                                                           
000114d9  xdc_runtime_Core_assignParams__I                                     
00011565  ICMPChecksum                                                         
000115a9  IPReasmFree                                                          
000115ed  LLIGetValidTime                                                      
00011631  RouteMsg                                                             
00011675  RtWalkEnd                                                            
000116b9  SockPcbDetach                                                        
00011741  llTimerGetTime                                                       
00011785  xdc_runtime_Error_getSite__E                                         
00011789  ti_sysbios_family_arm_lm4_Timer_stop__E                              
000117cd  xdc_runtime_System_Module_GateProxy_enter__E                         
000117d1  ti_sysbios_family_arm_m3_Hwi_getStackInfo__E                         
000117d1  ti_sysbios_hal_Hwi_HwiProxy_getStackInfo__E                          
00011815  xdc_runtime_System_Module_GateProxy_leave__E                         
00011819  ti_sysbios_utils_Load_removeTask__E                                  
0001185d  ti_uia_loggers_LoggerStopMode_initBuffer__I                          
000118a1  xdc_runtime_Error_setX__E                                            
000118e5  xdc_runtime_SysMin_flush__E                                          
000118e5  xdc_runtime_System_SupportProxy_flush__E                             
00011929  xdc_runtime_Text_xprintf__I                                          
0001196d  NDK_listen                                                           
000119af  TcpPrSendOOB                                                         
000119f1  fdCloseSession                                                       
00011a35  LLIValidateRoute                                                     
00011a75  PBM_copy                                                             
00011ab5  SockPcbRtChange                                                      
00011af5  TcpPrSend                                                            
00011b35  __aeabi_uidiv                                                        
00011b35  __aeabi_uidivmod                                                     
00011b75  xdc_runtime_System_aprintf_va__F                                     
00011b79  ti_sysbios_family_arm_lm4_Timer_startup__E                           
00011b79  ti_sysbios_knl_Clock_TimerProxy_startup__E                           
00011bb9  ADCSequenceConfigure                                                 
00011bf7  DHCPClose                                                            
00011c73  TaskCreate                                                           
00011cb1  TcpPrDisconnect                                                      
00011cef  fdint_unlockfd                                                       
00011d2d  CfgEntryGetData                                                      
00011d69  EMACIntDisable                                                       
00011de1  RtWalkBegin                                                          
00011e1d  TcpPrConnect                                                         
00011e59  TcpSetPersist                                                        
00011ed1  _RtNodeRemove                                                        
00011f0d  _llTimerInit                                                         
00011f49  ti_sysbios_family_arm_m3_Hwi_excSvCall__I                            
00011f85  xdc_runtime_System_printf_va__F                                      
00011f89  ti_sysbios_heaps_HeapMem_init__I                                     
00011fc9  ti_sysbios_knl_Swi_startup__E                                        
00012005  EMACIntEnable                                                        
00012041  EMACConfigGet                                                        
00012079  IPReasmTimeout                                                       
000120b1  NodeGetRt                                                            
000120e9  SysCtlPeripheralReady                                                
00012121  TcpClose                                                             
00012159  TimerHSTick                                                          
00012191  dhcpBuildDiscover                                                    
000121c9  dhcpOptionsClear                                                     
00012201  fdint_waitevent                                                      
00012239  ti_sysbios_family_arm_m3_Hwi_excNoIsr__I                             
00012271  ti_sysbios_knl_Clock_create                                          
000122a9  ti_sysbios_knl_Task_processVitalTaskFlag__I                          
000122e1  xdc_runtime_SysMin_putch__E                                          
000122e1  xdc_runtime_System_SupportProxy_putch__E                             
00012319  xdc_runtime_System_atexit__E                                         
00012351  IPChecksum                                                           
00012389  CfgSetService                                                        
000123bd  EMACConfigSet                                                        
000123f1  EMACIntClear                                                         
00012425  EMACSnow_emacPoll                                                    
00012459  EMACSnow_isLinkUp                                                    
0001248d  EMAC_init                                                            
000124c1  ExecClose                                                            
000124f5  NIMUFindByName                                                       
00012529  NIMUInit                                                             
0001255d  RawEthSockNotify                                                     
00012591  SockPrCtlError                                                       
000125c5  SysCtlPeripheralEnable                                               
00012631  ti_sysbios_family_arm_m3_Hwi_Instance_finalize__E                    
00012669  ti_sysbios_family_arm_m3_Hwi_excNmi__I                               
000126a1  ti_sysbios_hal_Hwi_checkStack                                        
000126d5  ti_sysbios_knl_Semaphore_create                                      
00012709  ti_uia_loggers_LoggerStopMode_reset__E                               
0001273d  xdc_runtime_Core_assignLabel__I                                      
00012771  xdc_runtime_Text_printVisFxn__I                                      
000127a5  CfgGetImmediate                                                      
000127d7  RtDeRef                                                              
00012809  RtSetFailure                                                         
0001283b  SBFlush                                                              
0001286d  SBSetMax                                                             
0001289f  SockIntAbort                                                         
00012939  ti_sysbios_hal_Hwi_initStack                                         
0001296b  EMACRxDMADescriptorListSet                                           
00012971  ti_sysbios_knl_Semaphore_pendTimeout__I                              
000129a3  EMACAddrSet                                                          
00012a05  NS_PreBoot                                                           
00012a35  SockBind                                                             
00012a65  SockGetName                                                          
00012a95  dhcpPacketSend                                                       
00012ac5  list_remove_node                                                     
00012af5  ti_sysbios_BIOS_atExitFunc__I                                        
00012b29  ti_sysbios_family_arm_m3_TaskSupport_start__E                        
00012b29  ti_sysbios_knl_Task_SupportProxy_start__E                            
00012b59  ti_sysbios_gates_GateHwi_Object__create__S                           
00012b89  ti_sysbios_gates_GateMutex_Object__create__S                         
00012bb9  ti_sysbios_heaps_HeapMem_Object__create__S                           
00012be9  ti_sysbios_knl_Semaphore_construct                                   
00012c19  ti_uia_loggers_LoggerStopMode_Object__create__S                      
00012c49  xdc_runtime_SysMin_abort__E                                          
00012c49  xdc_runtime_System_SupportProxy_abort__E                             
00012c79  xdc_runtime_System_processAtExit__E                                  
00012ca9  SBFree                                                               
00012cd7  EMACIntStatus                                                        
00012d03  FdSignalEvent                                                        
00012d31  IGMPTestGroup                                                        
00012d5d  NDK_hookCreate                                                       
00012db5  NIMUPacketServiceCheck                                               
00012de1  PipeClose                                                            
00012e0d  SockPcbAttach                                                        
00012e39  _LLIExpListRemove                                                    
00012e65  _LLITimeoutFlush                                                     
00012e91  _RtExpListRemove                                                     
00012ebd  ti_sysbios_knl_Clock_doTick__I                                       
00012ee9  ti_sysbios_knl_Queue_construct                                       
00012f19  ti_sysbios_knl_Task_restore__E                                       
00012f45  uDMAChannelAssign                                                    
00012f71  xdc_runtime_Text_cordText__E                                         
00012f9d  GPIODirModeSet                                                       
00012fc7  PBMQ_deq                                                             
00013045  xdc_runtime_System_putchar__I                                        
00013071  BindFindByNet                                                        
00013099  LLIFree                                                              
000130c1  NC_SystemClose                                                       
000130e9  NIMUCreatePacket                                                     
00013111  NIMUPacketService                                                    
000131b1  VLANInit                                                             
000131d9  dhcpPacketReceive                                                    
00013201  sqrtf                                                                
00013251  ti_sysbios_BIOS_startFunc__I                                         
00013279  ti_sysbios_knl_Swi_Module_startup__E                                 
000132a1  uDMAChannelModeGet                                                   
000132c9  CfgEntryInfo                                                         
000132ef  EMACPHYRead                                                          
00013315  EMACPHYWrite                                                         
0001333b  RawEthSockClose                                                      
00013361  ti_ndk_config_udp_init                                               
00013387  ti_sysbios_family_arm_m3_Hwi_pendSV__I                               
000133ab  ti_sysbios_family_arm_m3_Hwi_return                                  
000133ad  xdc_runtime_System_avprintf__E                                       
000133d5  BindFindByHost                                                       
000133f9  BindGetIFByDBCast                                                    
0001341d  EMACSnow_pkt_service                                                 
00013465  ExecTimer                                                            
00013489  NIMUFindByIndex                                                      
000134ad  RTCAddHook                                                           
000134d1  RawEthSockPcbFind                                                    
00013519  RtSetTimeout                                                         
0001353d  SockPcbCleanup                                                       
00013561  TcpPrListen                                                          
00013585  TcpTimeoutWait2                                                      
000135cd  ti_sysbios_BIOS_registerRTSLock__I                                   
000135f1  ti_sysbios_BIOS_removeRTSLock__I                                     
00013619  ti_sysbios_family_arm_m3_Hwi_doTaskRestore__I                        
0001363d  ti_sysbios_BIOS_RtsGateProxy_Object__delete__S                       
0001363d  ti_sysbios_gates_GateMutex_Object__delete__S                         
0001363d  ti_sysbios_heaps_HeapMem_Module_GateProxy_Object__delete__S          
00013661  ti_sysbios_knl_Clock_Module_startup__E                               
00013685  ti_sysbios_knl_Semaphore_Object__delete__S                           
000136a9  uDMAChannelControlSet                                                
000136cd  xdc_runtime_System_vprintf__E                                        
000136f1  CfgEntryRef                                                          
00013759  ti_sysbios_family_arm_lm4_Timer_write__I                             
0001377b  xdc_runtime_SysMin_output__I                                         
0001379d  NC_BootComplete                                                      
000137dd  RTCRemoveHook                                                        
000137fd  TcpTimeoutRemove                                                     
0001383d  ti_sysbios_BIOS_rtsLock__I                                           
0001385d  ti_sysbios_family_arm_m3_Hwi_Object__delete__S                       
0001385d  ti_sysbios_hal_Hwi_HwiProxy_Object__delete__S                        
0001387d  ti_sysbios_family_arm_m3_Hwi_excHandlerAsm__I                        
000138a1  ti_sysbios_family_arm_m3_Hwi_excHandler__I                           
000138c1  ti_sysbios_gates_GateHwi_Object__delete__S                           
000138c1  xdc_runtime_Main_Module_GateProxy_Object__delete__S                  
000138c1  xdc_runtime_System_Module_GateProxy_Object__delete__S                
000138e1  ti_sysbios_heaps_HeapMem_Object__delete__S                           
000138e1  xdc_runtime_Memory_HeapProxy_Object__delete__S                       
00013901  ti_sysbios_knl_Idle_run__E                                           
00013921  ti_sysbios_knl_Semaphore_Object__destruct__S                         
00013941  ti_sysbios_knl_Swi_Object__delete__S                                 
00013961  ti_sysbios_knl_Task_Object__delete__S                                
00013981  ti_uia_loggers_LoggerStopMode_Object__delete__S                      
000139a1  xdc_runtime_Registry_findById__E                                     
000139c1  xdc_runtime_SysMin_Module_startup__E                                 
000139e1  list_remove                                                          
00013a3b  ti_sysbios_BIOS_errorRaiseHook__I                                    
00013a59  ti_sysbios_family_xxx_Hwi_switchAndRunFunc                           
00013a79  BindFindByIF                                                         
00013ab1  NDK_sprintf                                                          
00013acd  NIMUAddHeader                                                        
00013ae9  SockPrDetach                                                         
00013b05  TaskDestroy                                                          
00013b59  ti_ndk_config_global_taskCreateHook                                  
00013b79  ti_sysbios_gates_GateMutex_Instance_init__E                          
00013b95  ti_sysbios_knl_Queue_Object__destruct__S                             
00013bb1  ti_sysbios_knl_Task_enter__I                                         
00013bcd  ti_uia_loggers_LoggerStopMode_Instance_init__E                       
00013be9  xdc_runtime_Error_raiseX__E                                          
00013c05  xdc_runtime_Memory_valloc__E                                         
00013c21  xdc_runtime_SysMin_exit__E                                           
00013c21  xdc_runtime_System_SupportProxy_exit__E                              
00013c3d  xdc_runtime_System_abort__E                                          
00013c59  BindGetIP                                                            
00013c73  SockSetOOBMark                                                       
00013c8d  fdint_getfdt                                                         
00013ca7  ti_sysbios_family_arm_m3_Hwi_Handle__label__S                        
00013ca7  ti_sysbios_hal_Hwi_HwiProxy_Handle__label__S                         
00013cc1  ti_sysbios_gates_GateHwi_Handle__label__S                            
00013cc1  xdc_runtime_Main_Module_GateProxy_Handle__label__S                   
00013cc1  xdc_runtime_System_Module_GateProxy_Handle__label__S                 
00013cdb  ti_sysbios_BIOS_RtsGateProxy_Handle__label__S                        
00013cdb  ti_sysbios_gates_GateMutex_Handle__label__S                          
00013cdb  ti_sysbios_heaps_HeapMem_Module_GateProxy_Handle__label__S           
00013cf5  ti_sysbios_heaps_HeapMem_Handle__label__S                            
00013cf5  xdc_runtime_Memory_HeapProxy_Handle__label__S                        
00013d0f  ti_sysbios_knl_Swi_Handle__label__S                                  
00013d29  ti_sysbios_knl_Task_Handle__label__S                                 
00013d43  EMACTxDMADescriptorListSet                                           
00013d49  ti_sysbios_knl_Task_sleepTimeout__I                                  
00013d63  ti_uia_loggers_LoggerStopMode_Handle__label__S                       
00013d7d  xdc_runtime_System_aprintf__E                                        
00013d97  xdc_runtime_System_printf__E                                         
00013db1  ADCClockConfigSet                                                    
00013dc9  EMACSnow_emacSend                                                    
00013de1  IPRtChange                                                           
00013df9  RawEthSockPcbCleanup                                                 
00013ee9  TcpTimeoutAdd                                                        
00013f01  dhcpSocketClose                                                      
00013f19  list_add                                                             
00013f31  _args_main                                                           
00013f49  strcmp                                                               
00013f61  ti_sysbios_BIOS_rtsUnlock__I                                         
00013f79  ti_sysbios_family_arm_lm4_Timer_Module__startupDone__F               
00013f79  ti_sysbios_family_arm_lm4_Timer_Module__startupDone__S               
00013f79  ti_sysbios_knl_Clock_TimerProxy_Module__startupDone__S               
00013f91  ti_sysbios_family_arm_m3_Hwi_Module__startupDone__F                  
00013f91  ti_sysbios_family_arm_m3_Hwi_Module__startupDone__S                  
00013f91  ti_sysbios_hal_Hwi_HwiProxy_Module__startupDone__S                   
00013fa9  ti_sysbios_family_arm_m3_TaskSupport_swap__E                         
00013fa9  ti_sysbios_knl_Task_SupportProxy_swap__E                             
00013fb5  ti_sysbios_knl_Task_swapReturn                                       
00013fc1  ti_sysbios_gates_GateMutex_leave__E                                  
00013fd9  uDMAChannelEnable                                                    
00013ff1  xdc_runtime_Error_check__E                                           
00014009  xdc_runtime_System_exit__E                                           
00014021  xdc_runtime_Text_ropeText__E                                         
00014039  EMACReset                                                            
0001404f  EMACRxEnable                                                         
00014065  EMACTxEnable                                                         
0001407b  fdint_freefdt                                                        
00014091  ti_sysbios_BIOS_exitFunc__I                                          
000140bd  ti_uia_loggers_LoggerStopMode_disable__E                             
000140d3  ti_uia_loggers_LoggerStopMode_enable__E                              
000140e9  xdc_runtime_System_vsprintf__E                                       
000140ff  BindIPHost2IF                                                        
00014115  FlashUserGet                                                         
00014129  NC_NetStop                                                           
0001413d  NDK_hookExit                                                         
00014151  NIMUSendPacket                                                       
00014165  NtRemoveNetwork                                                      
00014179  RawEthSockPcbInit                                                    
0001418d  TimerFree                                                            
000141c9  initSamplesTask                                                      
000141dd  _register_unlock                                                     
000141e3  _register_lock                                                       
000141eb  _nop                                                                 
000141f1  strcpy                                                               
00014205  strlen                                                               
0001422d  ti_ndk_config_global_taskExitHook                                    
00014241  ti_sysbios_family_arm_m3_Hwi_Object__get__S                          
00014259  ti_sysbios_family_arm_m3_Hwi_switchFromBootStack__E                  
00014259  ti_sysbios_hal_Hwi_HwiProxy_switchFromBootStack__E                   
0001426d  ti_sysbios_heaps_HeapMem_Object__get__S                              
00014281  ti_sysbios_knl_Swi_Object__get__S                                    
00014295  ti_sysbios_knl_Task_Object__first__S                                 
000142a9  ti_sysbios_knl_Task_Object__get__S                                   
000142bd  ti_sysbios_knl_Task_Object__next__S                                  
000142d1  ADCHardwareOversampleConfigure                                       
000142e3  GPIOPinTypeADC                                                       
000142f5  GPIOPinTypeEthernetLED                                               
00014307  SockPrAttach                                                         
00014319  SockSetOOBData                                                       
0001432b  TimerLoadSet                                                         
0001433d  heartBeat_Task                                                       
0001434f  inet_addr                                                            
00014361  ti_sysbios_hal_Hwi_Module_startup__E                                 
00014373  GPIOIntClear                                                         
00014379  ti_sysbios_knl_Semaphore_reset__E                                    
0001438b  xdc_runtime_Startup_exec__I                                          
0001439d  ti_catalog_arm_cortexm4_tiva_ce_Boot_init__I                         
000143ad  ADCSequenceDMAEnable                                                 
000143bd  BindIF2IPHost                                                        
000143cd  BindIFNet2IPHost                                                     
000143dd  EMACFrameFilterSet                                                   
000143ed  ExecHRef                                                             
000143fd  NC_IPUpdate                                                          
0001440d  NIMUGetRsvdSizeInfo                                                  
00014431  ti_sysbios_BIOS_getCpuFreq__E                                        
00014431  ti_sysbios_family_arm_lm4_TimestampProvider_getFreq__E               
00014431  xdc_runtime_Timestamp_SupportProxy_getFreq__E                        
00014441  ti_sysbios_BIOS_setThreadType__E                                     
00014451  osi_start                                                            
00014451  ti_sysbios_BIOS_start__E                                             
00014461  ti_sysbios_family_arm_lm4_TimestampProvider_rolloverFunc__E          
00014471  ti_sysbios_family_arm_m3_TaskSupport_glue                            
00014481  ti_sysbios_gates_GateMutex_Instance_finalize__E                      
00014491  ti_sysbios_knl_Semaphore_Instance_finalize__E                        
000144a1  ti_sysbios_knl_Swi_disable__E                                        
000144b1  osi_TaskDisable                                                      
000144b1  ti_sysbios_knl_Task_disable__E                                       
000144c1  ti_uia_loggers_LoggerStopMode_Object__get__S                         
000144d1  ti_uia_loggers_LoggerStopMode_isEmpty__E                             
000144e1  uDMADisable                                                          
000144f1  uDMAEnable                                                           
00014501  xdc_runtime_Gate_leaveSystem__E                                      
00014511  xdc_runtime_Memory_free__E                                           
00014521  xdc_runtime_SysMin_ready__E                                          
00014521  xdc_runtime_System_SupportProxy_ready__E                             
00014531  xdc_runtime_System_vsnprintf__E                                      
00014541  xdc_runtime_Text_visitRope__I                                        
00014551  ADCSequenceDisable                                                   
0001455f  ADCSequenceEnable                                                    
0001456d  EMACSnow_emacioctl                                                   
0001457b  ExecLowResource                                                      
00014589  GPIOIntStatus                                                        
00014597  TimerEnable                                                          
000145a5  __TI_decompress_none                                                 
000145b3  GPIOPinRead                                                          
000145b9  ti_sysbios_knl_Idle_loop__E                                          
000145c9  ti_sysbios_knl_Queue_empty__E                                        
000145d7  ADCReferenceSet                                                      
000145e5  BindGetFirst                                                         
000145f1  CfgSetDefault                                                        
000145fd  EMACSnow_init                                                        
00014609  NDK_hookInit                                                         
00014615  NIMUSetRsvdSizeInfo                                                  
00014621  NotifyLowResource                                                    
0001462d  PBM_close                                                            
00014639  SemDelete                                                            
00014645  _llTimerShutdown                                                     
0001465d  __TI_zero_init                                                       
00014669  llTimerGetStartTime                                                  
00014679  ti_sysbios_BIOS_getThreadType__E                                     
00014689  ti_sysbios_family_arm_lm4_Timer_getMaxTicks__E                       
00014699  ti_sysbios_family_arm_lm4_TimestampProvider_startTimer__E            
000146a5  ti_sysbios_family_arm_m3_Hwi_Params__init__S                         
000146a5  ti_sysbios_hal_Hwi_HwiProxy_Params__init__S                          
000146b1  OEMSysCritOn                                                         
000146b1  ti_sysbios_family_arm_m3_Hwi_disableFxn__E                           
000146b1  ti_sysbios_hal_Hwi_HwiProxy_disable__E                               
000146c1  ti_sysbios_family_arm_m3_TaskSupport_checkStack__E                   
000146c1  ti_sysbios_knl_Task_SupportProxy_checkStack__E                       
000146d1  ti_sysbios_family_arm_m3_TaskSupport_getStackAlignment__E            
000146d1  ti_sysbios_knl_Task_SupportProxy_getStackAlignment__E                
000146e1  ti_sysbios_gates_GateHwi_enter__E                                    
000146ed  ti_sysbios_knl_Clock_Params__init__S                                 
000146f9  ti_sysbios_knl_Clock_getTicks__E                                     
00014705  ti_sysbios_knl_Queue_Object__get__S                                  
00014711  ti_sysbios_knl_Semaphore_Params__init__S                             
0001471d  ti_sysbios_knl_Task_Params__init__S                                  
00014729  ti_sysbios_knl_Task_getIdleTask__E                                   
00014739  ti_sysbios_knl_Task_self__E                                          
00014749  ti_sysbios_utils_Load_taskRegHook__E                                 
00014755  uDMAControlBaseSet                                                   
00014761  xdc_runtime_Error_init__E                                            
0001476d  xdc_runtime_Gate_enterSystem__E                                      
00014779  xdc_runtime_Memory_calloc__E                                         
00014785  xdc_runtime_Memory_getMaxDefaultTypeAlign__E                         
00014791  fdint_signalevent                                                    
0001479b  fdint_signaltimeout                                                  
000147a5  xdc_runtime_Memory_HeapProxy_alloc__E                                
000147af  xdc_runtime_Memory_HeapProxy_free__E                                 
000147b9  ADCIntEnableEx                                                       
000147c1  EK_TM4C1294XL_initGPIO                                               
000147c9  EMACTxDMAPollDemand                                                  
000147d9  TaskBlock                                                            
000147e1  ti_sysbios_family_arm_lm4_Timer_masterDisable__I                     
000147e9  ti_sysbios_family_arm_m3_Hwi_doSwiRestore__I                         
000147f1  ti_sysbios_family_arm_m3_Hwi_startup__E                              
000147f1  ti_sysbios_hal_Hwi_HwiProxy_startup__E                               
000147f9  ti_sysbios_knl_Task_getHookContext__E                                
00014801  ti_sysbios_knl_Task_setHookContext__E                                
00014809  GPIOPinWrite                                                         
0001480f  SysCtlDelay                                                          
00014815  TcpPrRecv                                                            
0001481b  __xdc__init                                                          
00014821  ti_sysbios_family_arm_lm4_TimestampProvider_Module_startup__E        
00014829  OEMSysCritOff                                                        
00014829  ti_sysbios_family_arm_m3_Hwi_restoreFxn__E                           
00014829  ti_sysbios_hal_Hwi_HwiProxy_restore__E                               
00014831  ti_sysbios_gates_GateHwi_leave__E                                    
00014839  ti_sysbios_heaps_HeapMem_isBlocking__E                               
00014841  ti_sysbios_knl_Queue_Instance_init__E                                
00014847  xdc_runtime_System_Module_startup__E                                 
00014851  ti_sysbios_family_arm_lm4_Timer_getPeriod__E                         
00014859  ti_sysbios_gates_GateHwi_query__E                                    
00014859  xdc_runtime_Main_Module_GateProxy_query__E                           
00014859  xdc_runtime_System_Module_GateProxy_query__E                         
00014861  ti_sysbios_BIOS_RtsGateProxy_query__E                                
00014861  ti_sysbios_gates_GateMutex_query__E                                  
00014861  ti_sysbios_heaps_HeapMem_Module_GateProxy_query__E                   
00014869  ti_sysbios_knl_Task_startup__E                                       
00014871  ti_sysbios_gates_GateHwi_Instance_init__E                            
00014874  xdc_runtime_Text_charTab__A                                          
000168e9  xdc_runtime_Error_policy__C                                          
000168ea  ti_catalog_arm_cortexm4_tiva_ce_Boot_Module__id__C                   
00016b2c  xdc_runtime_Text_nodeTab__A                                          
00016f18  ti_uia_loggers_LoggerStopMode_Module__FXNS__C                        
00016fcc  Code2Err                                                             
000170a6  ti_sysbios_family_arm_lm4_TimestampProvider_useClockTimer__C         
000170a8  ti_ndk_config_Global_rawPageSize                                     
000170ac  ti_ndk_config_Global_rawPageCount                                    
000170b0  ti_ndk_config_Global_smallest                                        
000170b4  ti_ndk_config_Global_largest                                         
000170b8  ti_ndk_config_Global_numFrameBuf                                     
000170bc  ti_ndk_config_Global_sizeFrameBuf                                    
000170c0  ADC_Seq0_ISR_Handle                                                  
000170c4  ADC_Seq1_ISR_Handle                                                  
000170c8  initSamplesTask_Handle                                               
000170cc  s_adc0_pong_ready                                                    
000170d0  rmsCalc_Task_Handle                                                  
000170d4  s_adc0_ping_ready                                                    
000170d8  s_adc1_ping_ready                                                    
000170dc  s_adc1_pong_ready                                                    
000170e0  heartBeat_Task_Handle                                                
000170e4  ti_sysbios_knl_Task_Object__PARAMS__C                                
00017180  ti_sysbios_family_arm_m3_Hwi_Object__PARAMS__C                       
000171b0  ti_sysbios_knl_Task_hooks__A                                         
000171e0  ti_sysbios_heaps_HeapMem_Module__FXNS__C                             
00017208  ti_sysbios_knl_Swi_Object__PARAMS__C                                 
00017230  ti_uia_loggers_LoggerStopMode_Object__PARAMS__C                      
00017258  xdc_runtime_Startup_sfxnTab__A                                       
00017280  ti_sysbios_gates_GateHwi_Module__FXNS__C                             
000172a4  ti_sysbios_gates_GateMutex_Module__FXNS__C                           
000172c8  ti_sysbios_heaps_HeapMem_Object__PARAMS__C                           
000172ec  ti_sysbios_knl_Clock_Object__PARAMS__C                               
00017310  ti_sysbios_knl_Semaphore_Object__PARAMS__C                           
00017334  ti_sysbios_family_arm_m3_Hwi_Object__DESC__C                         
00017354  ti_sysbios_gates_GateHwi_Object__DESC__C                             
00017374  ti_sysbios_gates_GateMutex_Object__DESC__C                           
00017394  ti_sysbios_heaps_HeapMem_Object__DESC__C                             
000173b4  ti_sysbios_knl_Clock_Object__DESC__C                                 
000173d4  ti_sysbios_knl_Queue_Object__DESC__C                                 
000173f4  ti_sysbios_knl_Semaphore_Object__DESC__C                             
00017414  ti_sysbios_knl_Swi_Object__DESC__C                                   
00017434  ti_sysbios_knl_Task_Object__DESC__C                                  
00017454  ti_uia_loggers_LoggerStopMode_Object__DESC__C                        
00017474  EMAC_config                                                          
000174a4  ti_sysbios_gates_GateHwi_Object__PARAMS__C                           
000174bc  ti_sysbios_gates_GateMutex_Object__PARAMS__C                         
000174d4  ti_sysbios_knl_Queue_Object__PARAMS__C                               
000174ec  GPIOTiva_config                                                      
00017500  xdc_runtime_Startup_firstFxns__A                                     
00017514  xdc_runtime_Startup_sfxnRts__A                                       
00017528  emacHWAttrs                                                          
00017538  ti_sysbios_knl_Idle_funcList__A                                      
00017554  EMACSnow_fxnTable                                                    
0001755c  ti_sysbios_family_arm_m3_Hwi_excHookFuncs__A                         
00017564  ti_sysbios_knl_Idle_funcList__C                                      
0001756c  ti_sysbios_knl_Task_hooks__C                                         
00017574  xdc_runtime_Startup_firstFxns__C                                     
0001757c  xdc_runtime_Startup_lastFxns__C                                      
00017584  ti_catalog_arm_cortexm4_tiva_ce_Boot_A_mustNotUseEnhancedClockMode__C
00017588  ti_catalog_arm_cortexm4_tiva_ce_Boot_Module__diagsEnabled__C         
0001758c  ti_catalog_arm_cortexm4_tiva_ce_Boot_Module__diagsIncluded__C        
00017590  ti_catalog_arm_cortexm4_tiva_ce_Boot_Module__diagsMask__C            
00017594  ti_sysbios_family_arm_lm4_Timer_enableFunc__C                        
00017598  ti_sysbios_family_arm_lm4_Timer_numTimerDevices__C                   
0001759c  ti_sysbios_family_arm_lm4_Timer_startupNeeded__C                     
000175a0  ti_sysbios_family_arm_m3_Hwi_E_NMI__C                                
000175a4  ti_sysbios_family_arm_m3_Hwi_E_alreadyDefined__C                     
000175a8  ti_sysbios_family_arm_m3_Hwi_E_busFault__C                           
000175ac  ti_sysbios_family_arm_m3_Hwi_E_debugMon__C                           
000175b0  ti_sysbios_family_arm_m3_Hwi_E_hardFault__C                          
000175b4  ti_sysbios_family_arm_m3_Hwi_E_memFault__C                           
000175b8  ti_sysbios_family_arm_m3_Hwi_E_noIsr__C                              
000175bc  ti_sysbios_family_arm_m3_Hwi_E_reserved__C                           
000175c0  ti_sysbios_family_arm_m3_Hwi_E_svCall__C                             
000175c4  ti_sysbios_family_arm_m3_Hwi_E_usageFault__C                         
000175c8  ti_sysbios_family_arm_m3_Hwi_LD_end__C                               
000175cc  ti_sysbios_family_arm_m3_Hwi_LM_begin__C                             
000175d0  ti_sysbios_family_arm_m3_Hwi_Module__diagsEnabled__C                 
000175d4  ti_sysbios_family_arm_m3_Hwi_Module__diagsIncluded__C                
000175d8  ti_sysbios_family_arm_m3_Hwi_Module__diagsMask__C                    
000175dc  ti_sysbios_family_arm_m3_Hwi_Module__loggerFxn1__C                   
000175e0  ti_sysbios_family_arm_m3_Hwi_Module__loggerFxn8__C                   
000175e4  ti_sysbios_family_arm_m3_Hwi_Module__loggerObj__C                    
000175e8  ti_sysbios_family_arm_m3_Hwi_NUM_INTERRUPTS__C                       
000175ec  ti_sysbios_family_arm_m3_Hwi_Object__count__C                        
000175f0  ti_sysbios_family_arm_m3_Hwi_ccr__C                                  
000175f4  ti_sysbios_family_arm_m3_Hwi_excHandlerFunc__C                       
000175f8  ti_sysbios_family_arm_m3_Hwi_excHookFuncs__C                         
000175fc  ti_sysbios_family_arm_m3_Hwi_nullIsrFunc__C                          
00017600  ti_sysbios_family_arm_m3_Hwi_priGroup__C                             
00017604  ti_sysbios_family_arm_m3_TaskSupport_stackAlignment__C               
00017608  ti_sysbios_gates_GateMutex_A_badContext__C                           
0001760c  ti_sysbios_gates_GateMutex_Instance_State_sem__O                     
00017610  ti_sysbios_gates_GateMutex_Module__diagsEnabled__C                   
00017614  ti_sysbios_gates_GateMutex_Module__diagsIncluded__C                  
00017618  ti_sysbios_gates_GateMutex_Module__diagsMask__C                      
0001761c  ti_sysbios_hal_Hwi_E_stackOverflow__C                                
00017620  ti_sysbios_heaps_HeapMem_A_align__C                                  
00017624  ti_sysbios_heaps_HeapMem_A_heapSize__C                               
00017628  ti_sysbios_heaps_HeapMem_A_invalidFree__C                            
0001762c  ti_sysbios_heaps_HeapMem_A_zeroBlock__C                              
00017630  ti_sysbios_heaps_HeapMem_E_memory__C                                 
00017634  ti_sysbios_heaps_HeapMem_Module__diagsEnabled__C                     
00017638  ti_sysbios_heaps_HeapMem_Module__diagsIncluded__C                    
0001763c  ti_sysbios_heaps_HeapMem_Module__diagsMask__C                        
00017640  ti_sysbios_heaps_HeapMem_Module__gateObj__C                          
00017644  ti_sysbios_heaps_HeapMem_Object__count__C                            
00017648  ti_sysbios_heaps_HeapMem_reqAlign__C                                 
0001764c  ti_sysbios_knl_Clock_A_badThreadType__C                              
00017650  ti_sysbios_knl_Clock_LM_begin__C                                     
00017654  ti_sysbios_knl_Clock_LM_tick__C                                      
00017658  ti_sysbios_knl_Clock_LW_delayed__C                                   
0001765c  ti_sysbios_knl_Clock_Module_State_clockQ__O                          
00017660  ti_sysbios_knl_Clock_Module__diagsEnabled__C                         
00017664  ti_sysbios_knl_Clock_Module__diagsIncluded__C                        
00017668  ti_sysbios_knl_Clock_Module__diagsMask__C                            
0001766c  ti_sysbios_knl_Clock_Module__loggerFxn1__C                           
00017670  ti_sysbios_knl_Clock_Module__loggerFxn2__C                           
00017674  ti_sysbios_knl_Clock_Module__loggerObj__C                            
00017678  ti_sysbios_knl_Semaphore_A_badContext__C                             
0001767c  ti_sysbios_knl_Semaphore_A_noEvents__C                               
00017680  ti_sysbios_knl_Semaphore_A_overflow__C                               
00017684  ti_sysbios_knl_Semaphore_A_pendTaskDisabled__C                       
00017688  ti_sysbios_knl_Semaphore_Instance_State_pendQ__O                     
0001768c  ti_sysbios_knl_Semaphore_LM_pend__C                                  
00017690  ti_sysbios_knl_Semaphore_LM_post__C                                  
00017694  ti_sysbios_knl_Semaphore_Module__diagsEnabled__C                     
00017698  ti_sysbios_knl_Semaphore_Module__diagsIncluded__C                    
0001769c  ti_sysbios_knl_Semaphore_Module__diagsMask__C                        
000176a0  ti_sysbios_knl_Semaphore_Module__loggerFxn2__C                       
000176a4  ti_sysbios_knl_Semaphore_Module__loggerFxn4__C                       
000176a8  ti_sysbios_knl_Semaphore_Module__loggerObj__C                        
000176ac  ti_sysbios_knl_Swi_A_badPriority__C                                  
000176b0  ti_sysbios_knl_Swi_LD_end__C                                         
000176b4  ti_sysbios_knl_Swi_LM_begin__C                                       
000176b8  ti_sysbios_knl_Swi_LM_post__C                                        
000176bc  ti_sysbios_knl_Swi_Module__diagsEnabled__C                           
000176c0  ti_sysbios_knl_Swi_Module__diagsIncluded__C                          
000176c4  ti_sysbios_knl_Swi_Module__diagsMask__C                              
000176c8  ti_sysbios_knl_Swi_Module__loggerFxn1__C                             
000176cc  ti_sysbios_knl_Swi_Module__loggerFxn4__C                             
000176d0  ti_sysbios_knl_Swi_Module__loggerObj__C                              
000176d4  ti_sysbios_knl_Swi_Object__count__C                                  
000176d8  ti_sysbios_knl_Task_A_badPriority__C                                 
000176dc  ti_sysbios_knl_Task_A_badTaskState__C                                
000176e0  ti_sysbios_knl_Task_A_badThreadType__C                               
000176e4  ti_sysbios_knl_Task_A_badTimeout__C                                  
000176e8  ti_sysbios_knl_Task_A_noPendElem__C                                  
000176ec  ti_sysbios_knl_Task_A_sleepTaskDisabled__C                           
000176f0  ti_sysbios_knl_Task_E_deleteNotAllowed__C                            
000176f4  ti_sysbios_knl_Task_E_spOutOfBounds__C                               
000176f8  ti_sysbios_knl_Task_E_stackOverflow__C                               
000176fc  ti_sysbios_knl_Task_LD_block__C                                      
00017700  ti_sysbios_knl_Task_LD_exit__C                                       
00017704  ti_sysbios_knl_Task_LD_ready__C                                      
00017708  ti_sysbios_knl_Task_LM_setPri__C                                     
0001770c  ti_sysbios_knl_Task_LM_sleep__C                                      
00017710  ti_sysbios_knl_Task_LM_switch__C                                     
00017714  ti_sysbios_knl_Task_Module_State_inactiveQ__O                        
00017718  ti_sysbios_knl_Task_Module_State_terminatedQ__O                      
0001771c  ti_sysbios_knl_Task_Module__diagsEnabled__C                          
00017720  ti_sysbios_knl_Task_Module__diagsIncluded__C                         
00017724  ti_sysbios_knl_Task_Module__diagsMask__C                             
00017728  ti_sysbios_knl_Task_Module__loggerFxn2__C                            
0001772c  ti_sysbios_knl_Task_Module__loggerFxn4__C                            
00017730  ti_sysbios_knl_Task_Module__loggerObj__C                             
00017734  ti_sysbios_knl_Task_Object__count__C                                 
00017738  ti_sysbios_knl_Task_Object__heap__C                                  
0001773c  ti_sysbios_knl_Task_allBlockedFunc__C                                
00017740  ti_sysbios_knl_Task_defaultStackHeap__C                              
00017744  ti_sysbios_knl_Task_defaultStackSize__C                              
00017748  ti_sysbios_knl_Task_numConstructedTasks__C                           
0001774c  ti_sysbios_utils_Load_LS_cpuLoad__C                                  
00017750  ti_sysbios_utils_Load_LS_taskLoad__C                                 
00017754  ti_sysbios_utils_Load_Module_State_taskList__O                       
00017758  ti_sysbios_utils_Load_Module__diagsEnabled__C                        
0001775c  ti_sysbios_utils_Load_Module__diagsIncluded__C                       
00017760  ti_sysbios_utils_Load_Module__diagsMask__C                           
00017764  ti_sysbios_utils_Load_Module__loggerFxn1__C                          
00017768  ti_sysbios_utils_Load_Module__loggerFxn4__C                          
0001776c  ti_sysbios_utils_Load_Module__loggerObj__C                           
00017770  ti_sysbios_utils_Load_postUpdate__C                                  
00017774  ti_sysbios_utils_Load_windowInMs__C                                  
00017778  ti_uia_loggers_LoggerStopMode_Module__diagsEnabled__C                
0001777c  ti_uia_loggers_LoggerStopMode_Module__diagsIncluded__C               
00017780  ti_uia_loggers_LoggerStopMode_Module__diagsMask__C                   
00017784  ti_uia_loggers_LoggerStopMode_Object__count__C                       
00017788  ti_uia_runtime_ILoggerSnapshot_Interface__BASE__C                    
0001778c  ti_uia_runtime_IUIATransfer_Interface__BASE__C                       
00017790  xdc_runtime_Assert_E_assertFailed__C                                 
00017794  xdc_runtime_Core_A_initializedParams__C                              
00017798  xdc_runtime_Core_Module__diagsEnabled__C                             
0001779c  xdc_runtime_Core_Module__diagsIncluded__C                            
000177a0  xdc_runtime_Core_Module__diagsMask__C                                
000177a4  xdc_runtime_Error_E_memory__C                                        
000177a8  xdc_runtime_Error_Module__diagsEnabled__C                            
000177ac  xdc_runtime_Error_Module__diagsIncluded__C                           
000177b0  xdc_runtime_Error_Module__diagsMask__C                               
000177b4  xdc_runtime_Error_Module__loggerFxn8__C                              
000177b8  xdc_runtime_Error_Module__loggerObj__C                               
000177bc  xdc_runtime_Error_policyFxn__C                                       
000177c0  xdc_runtime_Error_raiseHook__C                                       
000177c4  xdc_runtime_IFilterLogger_Interface__BASE__C                         
000177c8  xdc_runtime_IGateProvider_Interface__BASE__C                         
000177cc  xdc_runtime_IHeap_Interface__BASE__C                                 
000177d0  xdc_runtime_ILogger_Interface__BASE__C                               
000177d4  xdc_runtime_IModule_Interface__BASE__C                               
000177d8  xdc_runtime_Log_L_error__C                                           
000177dc  xdc_runtime_Memory_defaultHeapInstance__C                            
000177e0  xdc_runtime_Startup_execImpl__C                                      
000177e4  xdc_runtime_Startup_lastFxns__A                                      
000177e8  xdc_runtime_Startup_maxPasses__C                                     
000177ec  xdc_runtime_Startup_sfxnRts__C                                       
000177f0  xdc_runtime_Startup_sfxnTab__C                                       
000177f4  xdc_runtime_SysMin_bufSize__C                                        
000177f8  xdc_runtime_SysMin_outputFunc__C                                     
000177fc  xdc_runtime_System_Module__gateObj__C                                
00017800  xdc_runtime_System_abortFxn__C                                       
00017804  xdc_runtime_System_exitFxn__C                                        
00017808  xdc_runtime_System_extendFxn__C                                      
0001780c  xdc_runtime_System_maxAtexitHandlers__C                              
00017810  xdc_runtime_Text_charTab__C                                          
00017814  xdc_runtime_Text_nameEmpty__C                                        
00017818  xdc_runtime_Text_nameStatic__C                                       
0001781c  xdc_runtime_Text_nameUnknown__C                                      
00017820  xdc_runtime_Text_nodeTab__C                                          
00017824  xdc_runtime_Text_visitRopeFxn__C                                     
00017828  ti_sysbios_family_arm_m3_Hwi_Module__id__C                           
0001782a  ti_sysbios_family_arm_m3_Hwi_Module__loggerDefined__C                
0001782c  ti_sysbios_gates_GateMutex_Module__id__C                             
0001782e  ti_sysbios_hal_Hwi_Module__id__C                                     
00017830  ti_sysbios_heaps_HeapMem_Module__id__C                               
00017832  ti_sysbios_knl_Clock_Module__id__C                                   
00017834  ti_sysbios_knl_Clock_Module__loggerDefined__C                        
00017836  ti_sysbios_knl_Semaphore_Module__id__C                               
00017838  ti_sysbios_knl_Semaphore_Module__loggerDefined__C                    
0001783a  ti_sysbios_knl_Swi_Module__id__C                                     
0001783c  ti_sysbios_knl_Swi_Module__loggerDefined__C                          
0001783e  ti_sysbios_knl_Task_Module__id__C                                    
00017840  ti_sysbios_knl_Task_Module__loggerDefined__C                         
00017842  ti_sysbios_utils_Load_Module__id__C                                  
00017844  ti_sysbios_utils_Load_Module__loggerDefined__C                       
00017846  ti_sysbios_utils_Load_autoAddTasks__C                                
00017848  ti_sysbios_utils_Load_updateInIdle__C                                
0001784a  ti_uia_loggers_LoggerStopMode_Module__id__C                          
0001784c  ti_uia_loggers_LoggerStopMode_isTimestampEnabled__C                  
0001784e  xdc_runtime_Core_Module__id__C                                       
00017850  xdc_runtime_Error_Module__loggerDefined__C                           
00017852  xdc_runtime_Error_maxDepth__C                                        
00017854  xdc_runtime_Memory_Module__id__C                                     
00017856  xdc_runtime_SysMin_flushAtExit__C                                    
00017858  xdc_runtime_Text_charCnt__C                                          
0001785a  xdc_runtime_Text_isLoaded__C                                         
0001785c  xdc_runtime_Text_registryModsLastId__C                               
0001785e  xdc_runtime_Text_unnamedModsLastId__C                                
00017860  __TI_static_base__                                                   
00017d04  __TI_Handler_Table_Base                                              
00017d10  __TI_Handler_Table_Limit                                             
00017d20  __TI_CINIT_Base                                                      
00017d38  __TI_CINIT_Limit                                                     
20000000  ti_sysbios_family_arm_m3_Hwi_ramVectors                              
20000400  ti_sysbios_heaps_HeapMem_Instance_State_0_buf__A                     
20005400  ti_ndk_config_Global_pit                                             
200054a8  ti_ndk_config_Global_pitBuffer                                       
20009ca8  _ICMPIn                                                              
20009cf4  PBMQ_free                                                            
20009d00  ti_ndk_config_Global_pBufMem                                         
2000d900  ti_ndk_config_Global_pHdrMem                                         
2000dbf8  g_float32_ai0                                                        
2000fbf8  g_float32_scope                                                      
20011c00  ti_uia_loggers_LoggerStopMode_Instance_State_0_packetArray__A        
20012c00  ti_uia_loggers_LoggerStopMode_Instance_State_2_packetArray__A        
20013c00  udmaCtrlTable                                                        
20014c00  ti_sysbios_knl_Task_Instance_State_0_stack__A                        
20014e00  ti_sysbios_knl_Task_Instance_State_1_stack__A                        
20015000  ti_sysbios_knl_Task_Instance_State_2_stack__A                        
20015200  ti_sysbios_knl_Task_Instance_State_3_stack__A                        
20015800  ti_sysbios_knl_Task_Instance_State_4_stack__A                        
20015a00  g_uint16_adc0_ping                                                   
20016200  g_uint16_adc0_pong                                                   
20016a00  g_uint16_adc1_ping                                                   
20017200  g_uint16_adc1_pong                                                   
20017a00  ti_uia_loggers_LoggerStopMode_Instance_State_1_packetArray__A        
20017e00  ti_sysbios_family_arm_m3_Hwi_dispatchTable                           
20018160  __CIOBUF_                                                            
20018380  tcps                                                                 
2001869c  xdc_runtime_SysMin_Module_State_0_outbuf__A                          
2001871c  ips                                                                  
20018784  nimu_mcb                                                             
200187e8  _ICMPOut                                                             
20018874  tpseudo                                                              
20018880  ti_uia_loggers_LoggerStopMode_Instance_State_0_hdr__A                
200188b0  vlan_mcb                                                             
20018900  ti_uia_loggers_LoggerStopMode_Instance_State_1_hdr__A                
20018930  udps                                                                 
20018954  BlockCount                                                           
20018980  ti_uia_loggers_LoggerStopMode_Instance_State_2_hdr__A                
200189b0  BlockMax                                                             
200189cc  PageCount                                                            
200189e8  PageMax                                                              
20018a04  stkEvent                                                             
20018a30  raweths                                                              
20018a40  raws                                                                 
20018a50  upseudo                                                              
20018a5c  emacObjects                                                          
20018a64  ti_sysbios_knl_Task_Instance_State_0_hookEnv__A                      
20018a6c  ti_sysbios_knl_Task_Instance_State_1_hookEnv__A                      
20018a74  ti_sysbios_knl_Task_Instance_State_2_hookEnv__A                      
20018a7c  ti_sysbios_knl_Task_Instance_State_3_hookEnv__A                      
20018a84  ti_sysbios_knl_Task_Instance_State_4_hookEnv__A                      
20018aac  _IGMPInDiscard                                                       
20018ab0  _IGMPInQuery                                                         
20018ab4  _IGMPInQueryGroup                                                    
20018ab8  _IGMPInResponse                                                      
20018abc  _IGMPOutResponse                                                     
20018ac0  g_ulStatus                                                           
20018ad4  raweth_pcb                                                           
20018ad8  ti_sysbios_knl_Task_Object__table__V                                 
20018c68  _ipcfg                                                               
20018d1c  ti_uia_loggers_LoggerStopMode_Object__table__V                       
20018db8  ti_sysbios_utils_Load_Module__state__V                               
20018e50  ti_sysbios_utils_Load_Module_State_0_taskEnv__A                      
20018edc  ti_sysbios_family_arm_lm4_Timer_Object__table__V                     
20018f5c  ti_sysbios_knl_Swi_Module_State_0_readyQ__A                          
20018fdc  ti_sysbios_knl_Task_Module_State_0_readyQ__A                         
2001905c  ti_sysbios_family_arm_m3_Hwi_Object__table__V                        
200190bc  ti_sysbios_knl_Semaphore_Object__table__V                            
2001915a  ti_sysbios_family_arm_m3_Hwi_Module_State_0_excActive__A             
2001915c  ti_sysbios_knl_Task_Module__state__V                                 
20019220  ti_sysbios_family_arm_lm4_Timer_Module_State_0_device__A             
20019260  ti_sysbios_gates_GateMutex_Object__table__V                          
200192cc  ti_sysbios_family_arm_m3_Hwi_Module__state__V                        
20019300  enablePrefetch                                                       
20019304  phyCounter                                                           
20019332  xdc_runtime_Error_Module__state__V                                   
20019364  ti_sysbios_knl_Swi_Object__table__V                                  
20019394  ti_sysbios_knl_Clock_Module__state__V                                
200193c0  pstrMsgName                                                          
200193e8  _oscfg                                                               
2001940c  PITCount                                                             
20019410  PITUsed                                                              
20019414  PITHigh                                                              
20019430  ti_sysbios_BIOS_Module__state__V                                     
20019454  ti_sysbios_family_arm_lm4_Timer_Module_State_0_handles__A            
20019490  ti_ndk_config_Global_Id2Size                                         
200194ac  ti_sysbios_knl_Swi_Module__state__V                                  
200194c8  ti_ndk_config_Global_HostName                                        
200194cc  LocalIPAddr                                                          
200194d0  LocalIPMask                                                          
200194d4  GatewayIP                                                            
200194d8  DomainName                                                           
200194dc  __xdc__init__addr                                                    
20019510  ti_sysbios_heaps_HeapMem_Object__table__V                            
2001953c  gpioPinConfigs                                                       
20019554  _IGMPForceVersion1                                                   
2001955c  __TI_cleanup_ptr                                                     
20019560  __TI_dtors_ptr                                                       
20019564  __TI_enable_exit_profile_output                                      
20019568  rms_ai0                                                              
2001956c  maxValue                                                             
20019570  maxIndex                                                             
20019574  ti_sysbios_family_arm_lm4_Timer_Module__state__V                     
20019580  ti_sysbios_knl_Task_Module__root__V                                  
2001958c  ti_uia_runtime_QueueDescriptor_Module__state__V                      
20019598  xdc_runtime_SysMin_Module__state__V                                  
200195b0  _lock                                                                
200195b4  _unlock                                                              
200195b8  NIMUDeviceTable                                                      
200195c0  gpioCallbackFunctions                                                
200195d8  _ICMPInErrors                                                        
200195dc  _ICMPOutErrors                                                       
200195e0  _IPExecuting                                                         
200195f8  tcp_iss                                                              
200195fc  ptTimeFirst                                                          
20019608  ti_uia_runtime_QueueDescriptor_gPtrToFirstDescriptor                 
2001960c  ti_uia_runtime_QueueDescriptor_gUpdateCount                          
20019610  ti_sysbios_family_arm_lm4_TimestampProvider_Module__state__V         
20019618  ti_sysbios_family_arm_m3_Hwi_Module__root__V                         
20019620  ti_sysbios_gates_GateHwi_Module__root__V                             
20019628  ti_sysbios_gates_GateMutex_Module__root__V                           
20019630  ti_sysbios_heaps_HeapMem_Module__root__V                             
20019638  ti_sysbios_knl_Clock_Module__root__V                                 
20019640  ti_sysbios_knl_Queue_Module__root__V                                 
20019648  ti_sysbios_knl_Semaphore_Module__root__V                             
20019650  ti_sysbios_knl_Swi_Module__root__V                                   
20019658  ti_uia_loggers_LoggerStopMode_Module__root__V                        
20019660  xdc_runtime_Registry_Module__state__V                                
20019668  xdc_runtime_Startup_Module__state__V                                 
20019670  xdc_runtime_System_Module_State_0_atexitHandlers__A                  
20019678  xdc_runtime_System_Module__state__V                                  
20019680  macAddress                                                           
200196a0  errno                                                                
200196a4  main_func_sp                                                         
200196ac  _IPReasmPtr                                                          
200196bc  ti_sysbios_family_arm_m3_Hwi_Module_State_0_excContext__A            
200196c0  ti_sysbios_family_arm_m3_Hwi_Module_State_0_excStack__A              
200196c4  ti_sysbios_gates_GateHwi_Object__table__V                            
200196c8  ti_sysbios_knl_Task_Module_State_0_idleTask__A                       
200196cc  ti_sysbios_utils_Load_Module_State_0_runningTask__A                  
200196d0  ti_sysbios_utils_Load_Module_State_0_taskStartTime__A                
200196d4  xdc_runtime_Memory_Module__state__V                                  
200196d8  __stack                                                              
20019ed8  __STACK_END                                                          
e000e000  ti_sysbios_family_arm_m3_Hwi_nvic                                    
ffffffff  __TI_pprof_out_hndl                                                  
ffffffff  __TI_prof_data_size                                                  
ffffffff  __TI_prof_data_start                                                 
ffffffff  __binit__                                                            
ffffffff  __c_args__                                                           
ffffffff  binit                                                                
UNDEFED   SHT$$INIT_ARRAY$$Base                                                
UNDEFED   SHT$$INIT_ARRAY$$Limit                                               

[1227 symbols]
